

Microchip MPLAB XC8 Assembler V2.35 build 20211206165544 
                                                                                               Fri Apr 15 14:54:36 2022

Microchip MPLAB XC8 C Compiler v2.35 (Free license) build 20211206165544 Og1 
     1                           	processor	16F15344
     2                           	pagewidth 120
     3                           	opt	flic
     4                           	psect	nvBANK1,global,class=BANK1,space=1,delta=1,noexec
     5                           	psect	nvBANK2,global,class=BANK2,space=1,delta=1,noexec
     6                           	psect	stringtext1,global,class=STRCODE,delta=2,noexec
     7                           	psect	stringtext2,global,class=STRCODE,delta=2,noexec
     8                           	psect	cinit,global,class=CODE,merge=1,delta=2
     9                           	psect	bssCOMMON,global,class=COMMON,space=1,delta=1,noexec
    10                           	psect	bssBANK1,global,class=BANK1,space=1,delta=1,noexec
    11                           	psect	bssBANK2,global,class=BANK2,space=1,delta=1,noexec
    12                           	psect	clrtext,global,class=CODE,delta=2
    13                           	psect	cstackBANK1,global,class=BANK1,space=1,delta=1,noexec
    14                           	psect	cstackCOMMON,global,class=COMMON,space=1,delta=1,noexec
    15                           	psect	cstackBANK0,global,class=BANK0,space=1,delta=1,noexec
    16                           	psect	maintext,global,class=CODE,merge=1,split=1,delta=2
    17                           	psect	text1,local,class=CODE,merge=1,delta=2,group=3
    18                           	psect	text2,local,class=CODE,merge=1,delta=2,group=1
    19                           	psect	text3,local,class=CODE,merge=1,delta=2,group=1
    20                           	psect	text4,local,class=CODE,merge=1,delta=2,group=1
    21                           	psect	text5,local,class=CODE,merge=1,delta=2,group=1
    22                           	psect	text6,local,class=CODE,merge=1,delta=2,group=3
    23                           	psect	text7,local,class=CODE,merge=1,delta=2,group=3
    24                           	psect	text8,local,class=CODE,merge=1,delta=2,group=3
    25                           	psect	text9,local,class=CODE,merge=1,delta=2,group=3
    26                           	psect	text10,local,class=CODE,merge=1,delta=2,group=3
    27                           	psect	text11,local,class=CODE,merge=1,delta=2,group=2
    28                           	psect	text12,local,class=CODE,merge=1,delta=2,group=2
    29                           	psect	text13,local,class=CODE,merge=1,delta=2
    30                           	psect	text14,local,class=CODE,merge=1,delta=2
    31                           	psect	text15,local,class=CODE,merge=1,delta=2
    32                           	psect	text16,local,class=CODE,merge=1,delta=2
    33                           	psect	text17,local,class=CODE,merge=1,delta=2
    34                           	psect	text18,local,class=CODE,merge=1,delta=2
    35                           	psect	text19,local,class=CODE,merge=1,delta=2
    36                           	psect	text20,local,class=CODE,merge=1,delta=2
    37                           	psect	text21,local,class=CODE,merge=1,delta=2
    38                           	psect	text22,local,class=CODE,merge=1,delta=2
    39                           	psect	text23,local,class=CODE,merge=1,delta=2
    40                           	psect	text24,local,class=CODE,merge=1,delta=2
    41                           	psect	text25,local,class=CODE,merge=1,delta=2
    42                           	psect	text26,local,class=CODE,merge=1,delta=2
    43                           	psect	intentry,global,class=CODE,delta=2
    44                           	psect	text28,local,class=CODE,merge=1,delta=2
    45                           	psect	text29,local,class=CODE,merge=1,delta=2
    46                           	psect	text30,local,class=CODE,merge=1,delta=2
    47                           	psect	text31,local,class=CODE,merge=1,delta=2
    48                           	psect	text32,local,class=CODE,merge=1,delta=2
    49                           	psect	text33,local,class=CODE,merge=1,delta=2
    50                           	psect	idloc,global,abs,ovrld,class=IDLOC,space=5,delta=2,noexec
    51                           	psect	config,global,abs,ovrld,class=CONFIG,space=4,delta=2,noexec
    52                           	dabs	1,0x7E,2
    53  0000                     
    54                           ; Version 2.40
    55                           ; Generated 19/01/2022 GMT
    56                           ; 
    57                           ; Copyright © 2022, Microchip Technology Inc. and its subsidiaries ("Microchip")
    58                           ; All rights reserved.
    59                           ; 
    60                           ; This software is developed by Microchip Technology Inc. and its subsidiaries ("Microch
      +                          ip").
    61                           ; 
    62                           ; Redistribution and use in source and binary forms, with or without modification, are
    63                           ; permitted provided that the following conditions are met:
    64                           ; 
    65                           ;     1. Redistributions of source code must retain the above copyright notice, this lis
      +                          t of
    66                           ;        conditions and the following disclaimer.
    67                           ; 
    68                           ;     2. Redistributions in binary form must reproduce the above copyright notice, this 
      +                          list
    69                           ;        of conditions and the following disclaimer in the documentation and/or other
    70                           ;        materials provided with the distribution. Publication is not required when
    71                           ;        this file is used in an embedded application.
    72                           ; 
    73                           ;     3. Microchip's name may not be used to endorse or promote products derived from th
      +                          is
    74                           ;        software without specific prior written permission.
    75                           ; 
    76                           ; THIS SOFTWARE IS PROVIDED BY MICROCHIP "AS IS" AND ANY EXPRESS OR IMPLIED WARRANTIES,
    77                           ; INCLUDING, BUT NOT LIMITED TO, THE IMPLIED WARRANTIES OF MERCHANTABILITY AND FITNESS F
      +                          OR
    78                           ; PURPOSE ARE DISCLAIMED.  IN NO EVENT SHALL MICROCHIP BE LIABLE FOR ANY DIRECT, INDIREC
      +                          T,
    79                           ; INCIDENTAL, SPECIAL, EXEMPLARY, OR CONSEQUENTIAL DAMAGES (INCLUDING BUT NOT LIMITED TO
    80                           ; PROCUREMENT OF SUBSTITUTE GOODS OR SERVICES; LOSS OF USE, DATA OR PROFITS; OR BUSINESS
    81                           ; INTERRUPTION) HOWSOEVER CAUSED AND ON ANY THEORY OF LIABILITY, WHETHER IN CONTRACT, ST
      +                          RICT
    82                           ; LIABILITY, OR TORT (INCLUDING NEGLIGENCE OR OTHERWISE) ARISING IN ANY WAY OUT OF THE U
      +                          SE OF
    83                           ; THIS SOFTWARE, EVEN IF ADVISED OF THE POSSIBILITY OF SUCH DAMAGE.
    84                           ; 
    85                           ; 
    86                           ; Code-generator required, PIC16F15344 Definitions
    87                           ; 
    88                           ; SFR Addresses
    89  0000                     	;# 
    90  0001                     	;# 
    91  0002                     	;# 
    92  0003                     	;# 
    93  0004                     	;# 
    94  0005                     	;# 
    95  0006                     	;# 
    96  0007                     	;# 
    97  0008                     	;# 
    98  0009                     	;# 
    99  000A                     	;# 
   100  000B                     	;# 
   101  000C                     	;# 
   102  000D                     	;# 
   103  000E                     	;# 
   104  0012                     	;# 
   105  0013                     	;# 
   106  0014                     	;# 
   107  0018                     	;# 
   108  0019                     	;# 
   109  001A                     	;# 
   110  009B                     	;# 
   111  009B                     	;# 
   112  009C                     	;# 
   113  009D                     	;# 
   114  009E                     	;# 
   115  009F                     	;# 
   116  0119                     	;# 
   117  0119                     	;# 
   118  0119                     	;# 
   119  011A                     	;# 
   120  011A                     	;# 
   121  011A                     	;# 
   122  011B                     	;# 
   123  011B                     	;# 
   124  011B                     	;# 
   125  011B                     	;# 
   126  011B                     	;# 
   127  011C                     	;# 
   128  011C                     	;# 
   129  011C                     	;# 
   130  011D                     	;# 
   131  011D                     	;# 
   132  011D                     	;# 
   133  011E                     	;# 
   134  011E                     	;# 
   135  011E                     	;# 
   136  011F                     	;# 
   137  011F                     	;# 
   138  011F                     	;# 
   139  011F                     	;# 
   140  011F                     	;# 
   141  018C                     	;# 
   142  018D                     	;# 
   143  018E                     	;# 
   144  018F                     	;# 
   145  0190                     	;# 
   146  0191                     	;# 
   147  0192                     	;# 
   148  020C                     	;# 
   149  020C                     	;# 
   150  020D                     	;# 
   151  020E                     	;# 
   152  020F                     	;# 
   153  020F                     	;# 
   154  0210                     	;# 
   155  0210                     	;# 
   156  0211                     	;# 
   157  0211                     	;# 
   158  028C                     	;# 
   159  028C                     	;# 
   160  028D                     	;# 
   161  028D                     	;# 
   162  028E                     	;# 
   163  028F                     	;# 
   164  0290                     	;# 
   165  0291                     	;# 
   166  030C                     	;# 
   167  030C                     	;# 
   168  030D                     	;# 
   169  030E                     	;# 
   170  030F                     	;# 
   171  0310                     	;# 
   172  0310                     	;# 
   173  0311                     	;# 
   174  0312                     	;# 
   175  0313                     	;# 
   176  0314                     	;# 
   177  0314                     	;# 
   178  0315                     	;# 
   179  0316                     	;# 
   180  0318                     	;# 
   181  0318                     	;# 
   182  0319                     	;# 
   183  031A                     	;# 
   184  031C                     	;# 
   185  031C                     	;# 
   186  031D                     	;# 
   187  031E                     	;# 
   188  038C                     	;# 
   189  038C                     	;# 
   190  038D                     	;# 
   191  038E                     	;# 
   192  058C                     	;# 
   193  058C                     	;# 
   194  058D                     	;# 
   195  058E                     	;# 
   196  058F                     	;# 
   197  058F                     	;# 
   198  0590                     	;# 
   199  0591                     	;# 
   200  0592                     	;# 
   201  0593                     	;# 
   202  059C                     	;# 
   203  059C                     	;# 
   204  059D                     	;# 
   205  059D                     	;# 
   206  059E                     	;# 
   207  059F                     	;# 
   208  060C                     	;# 
   209  060D                     	;# 
   210  060E                     	;# 
   211  060F                     	;# 
   212  0610                     	;# 
   213  0611                     	;# 
   214  0612                     	;# 
   215  0613                     	;# 
   216  0614                     	;# 
   217  070C                     	;# 
   218  070D                     	;# 
   219  070E                     	;# 
   220  070F                     	;# 
   221  0710                     	;# 
   222  0711                     	;# 
   223  0712                     	;# 
   224  0713                     	;# 
   225  0716                     	;# 
   226  0717                     	;# 
   227  0718                     	;# 
   228  0719                     	;# 
   229  071A                     	;# 
   230  071B                     	;# 
   231  071C                     	;# 
   232  071D                     	;# 
   233  0796                     	;# 
   234  0797                     	;# 
   235  0798                     	;# 
   236  0799                     	;# 
   237  079A                     	;# 
   238  079B                     	;# 
   239  080C                     	;# 
   240  080D                     	;# 
   241  080E                     	;# 
   242  080F                     	;# 
   243  0810                     	;# 
   244  0811                     	;# 
   245  0812                     	;# 
   246  0813                     	;# 
   247  0814                     	;# 
   248  081A                     	;# 
   249  081A                     	;# 
   250  081B                     	;# 
   251  081C                     	;# 
   252  081C                     	;# 
   253  081D                     	;# 
   254  081E                     	;# 
   255  081F                     	;# 
   256  088C                     	;# 
   257  088D                     	;# 
   258  088E                     	;# 
   259  088F                     	;# 
   260  0890                     	;# 
   261  0891                     	;# 
   262  0892                     	;# 
   263  0893                     	;# 
   264  0895                     	;# 
   265  0896                     	;# 
   266  090C                     	;# 
   267  090E                     	;# 
   268  090F                     	;# 
   269  091F                     	;# 
   270  098F                     	;# 
   271  098F                     	;# 
   272  0990                     	;# 
   273  0991                     	;# 
   274  0992                     	;# 
   275  0993                     	;# 
   276  0994                     	;# 
   277  0995                     	;# 
   278  0996                     	;# 
   279  0997                     	;# 
   280  0A19                     	;# 
   281  0A19                     	;# 
   282  0A1A                     	;# 
   283  0A1A                     	;# 
   284  0A1B                     	;# 
   285  0A1B                     	;# 
   286  0A1B                     	;# 
   287  0A1C                     	;# 
   288  0A1C                     	;# 
   289  0A1D                     	;# 
   290  0A1D                     	;# 
   291  0A1E                     	;# 
   292  0A1E                     	;# 
   293  0A1F                     	;# 
   294  0A1F                     	;# 
   295  0A1F                     	;# 
   296  1E0F                     	;# 
   297  1E10                     	;# 
   298  1E11                     	;# 
   299  1E12                     	;# 
   300  1E13                     	;# 
   301  1E14                     	;# 
   302  1E15                     	;# 
   303  1E16                     	;# 
   304  1E17                     	;# 
   305  1E18                     	;# 
   306  1E19                     	;# 
   307  1E1A                     	;# 
   308  1E1B                     	;# 
   309  1E1C                     	;# 
   310  1E1D                     	;# 
   311  1E1E                     	;# 
   312  1E1F                     	;# 
   313  1E20                     	;# 
   314  1E21                     	;# 
   315  1E22                     	;# 
   316  1E23                     	;# 
   317  1E24                     	;# 
   318  1E25                     	;# 
   319  1E26                     	;# 
   320  1E27                     	;# 
   321  1E28                     	;# 
   322  1E29                     	;# 
   323  1E2A                     	;# 
   324  1E2B                     	;# 
   325  1E2C                     	;# 
   326  1E2D                     	;# 
   327  1E2E                     	;# 
   328  1E2F                     	;# 
   329  1E30                     	;# 
   330  1E31                     	;# 
   331  1E32                     	;# 
   332  1E33                     	;# 
   333  1E34                     	;# 
   334  1E35                     	;# 
   335  1E36                     	;# 
   336  1E37                     	;# 
   337  1E8F                     	;# 
   338  1E90                     	;# 
   339  1E91                     	;# 
   340  1E92                     	;# 
   341  1E93                     	;# 
   342  1E9C                     	;# 
   343  1EA1                     	;# 
   344  1EA2                     	;# 
   345  1EB1                     	;# 
   346  1EBB                     	;# 
   347  1EBC                     	;# 
   348  1EBD                     	;# 
   349  1EBE                     	;# 
   350  1EC3                     	;# 
   351  1EC5                     	;# 
   352  1EC6                     	;# 
   353  1EC7                     	;# 
   354  1ECB                     	;# 
   355  1ECC                     	;# 
   356  1ECD                     	;# 
   357  1ECE                     	;# 
   358  1F10                     	;# 
   359  1F11                     	;# 
   360  1F12                     	;# 
   361  1F13                     	;# 
   362  1F14                     	;# 
   363  1F15                     	;# 
   364  1F1C                     	;# 
   365  1F1D                     	;# 
   366  1F1E                     	;# 
   367  1F1F                     	;# 
   368  1F20                     	;# 
   369  1F21                     	;# 
   370  1F22                     	;# 
   371  1F23                     	;# 
   372  1F24                     	;# 
   373  1F25                     	;# 
   374  1F26                     	;# 
   375  1F27                     	;# 
   376  1F38                     	;# 
   377  1F39                     	;# 
   378  1F3A                     	;# 
   379  1F3B                     	;# 
   380  1F3C                     	;# 
   381  1F3D                     	;# 
   382  1F3E                     	;# 
   383  1F3F                     	;# 
   384  1F43                     	;# 
   385  1F44                     	;# 
   386  1F45                     	;# 
   387  1F46                     	;# 
   388  1F47                     	;# 
   389  1F48                     	;# 
   390  1F49                     	;# 
   391  1F4A                     	;# 
   392  1F4E                     	;# 
   393  1F4F                     	;# 
   394  1F50                     	;# 
   395  1F51                     	;# 
   396  1F52                     	;# 
   397  1F53                     	;# 
   398  1F54                     	;# 
   399  1F55                     	;# 
   400  1FE4                     	;# 
   401  1FE5                     	;# 
   402  1FE6                     	;# 
   403  1FE7                     	;# 
   404  1FE8                     	;# 
   405  1FE8                     	;# 
   406  1FE9                     	;# 
   407  1FEA                     	;# 
   408  1FEA                     	;# 
   409  1FEB                     	;# 
   410  1FED                     	;# 
   411  1FEE                     	;# 
   412  1FEF                     	;# 
   413  0000                     	;# 
   414  0001                     	;# 
   415  0002                     	;# 
   416  0003                     	;# 
   417  0004                     	;# 
   418  0005                     	;# 
   419  0006                     	;# 
   420  0007                     	;# 
   421  0008                     	;# 
   422  0009                     	;# 
   423  000A                     	;# 
   424  000B                     	;# 
   425  000C                     	;# 
   426  000D                     	;# 
   427  000E                     	;# 
   428  0012                     	;# 
   429  0013                     	;# 
   430  0014                     	;# 
   431  0018                     	;# 
   432  0019                     	;# 
   433  001A                     	;# 
   434  009B                     	;# 
   435  009B                     	;# 
   436  009C                     	;# 
   437  009D                     	;# 
   438  009E                     	;# 
   439  009F                     	;# 
   440  0119                     	;# 
   441  0119                     	;# 
   442  0119                     	;# 
   443  011A                     	;# 
   444  011A                     	;# 
   445  011A                     	;# 
   446  011B                     	;# 
   447  011B                     	;# 
   448  011B                     	;# 
   449  011B                     	;# 
   450  011B                     	;# 
   451  011C                     	;# 
   452  011C                     	;# 
   453  011C                     	;# 
   454  011D                     	;# 
   455  011D                     	;# 
   456  011D                     	;# 
   457  011E                     	;# 
   458  011E                     	;# 
   459  011E                     	;# 
   460  011F                     	;# 
   461  011F                     	;# 
   462  011F                     	;# 
   463  011F                     	;# 
   464  011F                     	;# 
   465  018C                     	;# 
   466  018D                     	;# 
   467  018E                     	;# 
   468  018F                     	;# 
   469  0190                     	;# 
   470  0191                     	;# 
   471  0192                     	;# 
   472  020C                     	;# 
   473  020C                     	;# 
   474  020D                     	;# 
   475  020E                     	;# 
   476  020F                     	;# 
   477  020F                     	;# 
   478  0210                     	;# 
   479  0210                     	;# 
   480  0211                     	;# 
   481  0211                     	;# 
   482  028C                     	;# 
   483  028C                     	;# 
   484  028D                     	;# 
   485  028D                     	;# 
   486  028E                     	;# 
   487  028F                     	;# 
   488  0290                     	;# 
   489  0291                     	;# 
   490  030C                     	;# 
   491  030C                     	;# 
   492  030D                     	;# 
   493  030E                     	;# 
   494  030F                     	;# 
   495  0310                     	;# 
   496  0310                     	;# 
   497  0311                     	;# 
   498  0312                     	;# 
   499  0313                     	;# 
   500  0314                     	;# 
   501  0314                     	;# 
   502  0315                     	;# 
   503  0316                     	;# 
   504  0318                     	;# 
   505  0318                     	;# 
   506  0319                     	;# 
   507  031A                     	;# 
   508  031C                     	;# 
   509  031C                     	;# 
   510  031D                     	;# 
   511  031E                     	;# 
   512  038C                     	;# 
   513  038C                     	;# 
   514  038D                     	;# 
   515  038E                     	;# 
   516  058C                     	;# 
   517  058C                     	;# 
   518  058D                     	;# 
   519  058E                     	;# 
   520  058F                     	;# 
   521  058F                     	;# 
   522  0590                     	;# 
   523  0591                     	;# 
   524  0592                     	;# 
   525  0593                     	;# 
   526  059C                     	;# 
   527  059C                     	;# 
   528  059D                     	;# 
   529  059D                     	;# 
   530  059E                     	;# 
   531  059F                     	;# 
   532  060C                     	;# 
   533  060D                     	;# 
   534  060E                     	;# 
   535  060F                     	;# 
   536  0610                     	;# 
   537  0611                     	;# 
   538  0612                     	;# 
   539  0613                     	;# 
   540  0614                     	;# 
   541  070C                     	;# 
   542  070D                     	;# 
   543  070E                     	;# 
   544  070F                     	;# 
   545  0710                     	;# 
   546  0711                     	;# 
   547  0712                     	;# 
   548  0713                     	;# 
   549  0716                     	;# 
   550  0717                     	;# 
   551  0718                     	;# 
   552  0719                     	;# 
   553  071A                     	;# 
   554  071B                     	;# 
   555  071C                     	;# 
   556  071D                     	;# 
   557  0796                     	;# 
   558  0797                     	;# 
   559  0798                     	;# 
   560  0799                     	;# 
   561  079A                     	;# 
   562  079B                     	;# 
   563  080C                     	;# 
   564  080D                     	;# 
   565  080E                     	;# 
   566  080F                     	;# 
   567  0810                     	;# 
   568  0811                     	;# 
   569  0812                     	;# 
   570  0813                     	;# 
   571  0814                     	;# 
   572  081A                     	;# 
   573  081A                     	;# 
   574  081B                     	;# 
   575  081C                     	;# 
   576  081C                     	;# 
   577  081D                     	;# 
   578  081E                     	;# 
   579  081F                     	;# 
   580  088C                     	;# 
   581  088D                     	;# 
   582  088E                     	;# 
   583  088F                     	;# 
   584  0890                     	;# 
   585  0891                     	;# 
   586  0892                     	;# 
   587  0893                     	;# 
   588  0895                     	;# 
   589  0896                     	;# 
   590  090C                     	;# 
   591  090E                     	;# 
   592  090F                     	;# 
   593  091F                     	;# 
   594  098F                     	;# 
   595  098F                     	;# 
   596  0990                     	;# 
   597  0991                     	;# 
   598  0992                     	;# 
   599  0993                     	;# 
   600  0994                     	;# 
   601  0995                     	;# 
   602  0996                     	;# 
   603  0997                     	;# 
   604  0A19                     	;# 
   605  0A19                     	;# 
   606  0A1A                     	;# 
   607  0A1A                     	;# 
   608  0A1B                     	;# 
   609  0A1B                     	;# 
   610  0A1B                     	;# 
   611  0A1C                     	;# 
   612  0A1C                     	;# 
   613  0A1D                     	;# 
   614  0A1D                     	;# 
   615  0A1E                     	;# 
   616  0A1E                     	;# 
   617  0A1F                     	;# 
   618  0A1F                     	;# 
   619  0A1F                     	;# 
   620  1E0F                     	;# 
   621  1E10                     	;# 
   622  1E11                     	;# 
   623  1E12                     	;# 
   624  1E13                     	;# 
   625  1E14                     	;# 
   626  1E15                     	;# 
   627  1E16                     	;# 
   628  1E17                     	;# 
   629  1E18                     	;# 
   630  1E19                     	;# 
   631  1E1A                     	;# 
   632  1E1B                     	;# 
   633  1E1C                     	;# 
   634  1E1D                     	;# 
   635  1E1E                     	;# 
   636  1E1F                     	;# 
   637  1E20                     	;# 
   638  1E21                     	;# 
   639  1E22                     	;# 
   640  1E23                     	;# 
   641  1E24                     	;# 
   642  1E25                     	;# 
   643  1E26                     	;# 
   644  1E27                     	;# 
   645  1E28                     	;# 
   646  1E29                     	;# 
   647  1E2A                     	;# 
   648  1E2B                     	;# 
   649  1E2C                     	;# 
   650  1E2D                     	;# 
   651  1E2E                     	;# 
   652  1E2F                     	;# 
   653  1E30                     	;# 
   654  1E31                     	;# 
   655  1E32                     	;# 
   656  1E33                     	;# 
   657  1E34                     	;# 
   658  1E35                     	;# 
   659  1E36                     	;# 
   660  1E37                     	;# 
   661  1E8F                     	;# 
   662  1E90                     	;# 
   663  1E91                     	;# 
   664  1E92                     	;# 
   665  1E93                     	;# 
   666  1E9C                     	;# 
   667  1EA1                     	;# 
   668  1EA2                     	;# 
   669  1EB1                     	;# 
   670  1EBB                     	;# 
   671  1EBC                     	;# 
   672  1EBD                     	;# 
   673  1EBE                     	;# 
   674  1EC3                     	;# 
   675  1EC5                     	;# 
   676  1EC6                     	;# 
   677  1EC7                     	;# 
   678  1ECB                     	;# 
   679  1ECC                     	;# 
   680  1ECD                     	;# 
   681  1ECE                     	;# 
   682  1F10                     	;# 
   683  1F11                     	;# 
   684  1F12                     	;# 
   685  1F13                     	;# 
   686  1F14                     	;# 
   687  1F15                     	;# 
   688  1F1C                     	;# 
   689  1F1D                     	;# 
   690  1F1E                     	;# 
   691  1F1F                     	;# 
   692  1F20                     	;# 
   693  1F21                     	;# 
   694  1F22                     	;# 
   695  1F23                     	;# 
   696  1F24                     	;# 
   697  1F25                     	;# 
   698  1F26                     	;# 
   699  1F27                     	;# 
   700  1F38                     	;# 
   701  1F39                     	;# 
   702  1F3A                     	;# 
   703  1F3B                     	;# 
   704  1F3C                     	;# 
   705  1F3D                     	;# 
   706  1F3E                     	;# 
   707  1F3F                     	;# 
   708  1F43                     	;# 
   709  1F44                     	;# 
   710  1F45                     	;# 
   711  1F46                     	;# 
   712  1F47                     	;# 
   713  1F48                     	;# 
   714  1F49                     	;# 
   715  1F4A                     	;# 
   716  1F4E                     	;# 
   717  1F4F                     	;# 
   718  1F50                     	;# 
   719  1F51                     	;# 
   720  1F52                     	;# 
   721  1F53                     	;# 
   722  1F54                     	;# 
   723  1F55                     	;# 
   724  1FE4                     	;# 
   725  1FE5                     	;# 
   726  1FE6                     	;# 
   727  1FE7                     	;# 
   728  1FE8                     	;# 
   729  1FE8                     	;# 
   730  1FE9                     	;# 
   731  1FEA                     	;# 
   732  1FEA                     	;# 
   733  1FEB                     	;# 
   734  1FED                     	;# 
   735  1FEE                     	;# 
   736  1FEF                     	;# 
   737  0000                     	;# 
   738  0001                     	;# 
   739  0002                     	;# 
   740  0003                     	;# 
   741  0004                     	;# 
   742  0005                     	;# 
   743  0006                     	;# 
   744  0007                     	;# 
   745  0008                     	;# 
   746  0009                     	;# 
   747  000A                     	;# 
   748  000B                     	;# 
   749  000C                     	;# 
   750  000D                     	;# 
   751  000E                     	;# 
   752  0012                     	;# 
   753  0013                     	;# 
   754  0014                     	;# 
   755  0018                     	;# 
   756  0019                     	;# 
   757  001A                     	;# 
   758  009B                     	;# 
   759  009B                     	;# 
   760  009C                     	;# 
   761  009D                     	;# 
   762  009E                     	;# 
   763  009F                     	;# 
   764  0119                     	;# 
   765  0119                     	;# 
   766  0119                     	;# 
   767  011A                     	;# 
   768  011A                     	;# 
   769  011A                     	;# 
   770  011B                     	;# 
   771  011B                     	;# 
   772  011B                     	;# 
   773  011B                     	;# 
   774  011B                     	;# 
   775  011C                     	;# 
   776  011C                     	;# 
   777  011C                     	;# 
   778  011D                     	;# 
   779  011D                     	;# 
   780  011D                     	;# 
   781  011E                     	;# 
   782  011E                     	;# 
   783  011E                     	;# 
   784  011F                     	;# 
   785  011F                     	;# 
   786  011F                     	;# 
   787  011F                     	;# 
   788  011F                     	;# 
   789  018C                     	;# 
   790  018D                     	;# 
   791  018E                     	;# 
   792  018F                     	;# 
   793  0190                     	;# 
   794  0191                     	;# 
   795  0192                     	;# 
   796  020C                     	;# 
   797  020C                     	;# 
   798  020D                     	;# 
   799  020E                     	;# 
   800  020F                     	;# 
   801  020F                     	;# 
   802  0210                     	;# 
   803  0210                     	;# 
   804  0211                     	;# 
   805  0211                     	;# 
   806  028C                     	;# 
   807  028C                     	;# 
   808  028D                     	;# 
   809  028D                     	;# 
   810  028E                     	;# 
   811  028F                     	;# 
   812  0290                     	;# 
   813  0291                     	;# 
   814  030C                     	;# 
   815  030C                     	;# 
   816  030D                     	;# 
   817  030E                     	;# 
   818  030F                     	;# 
   819  0310                     	;# 
   820  0310                     	;# 
   821  0311                     	;# 
   822  0312                     	;# 
   823  0313                     	;# 
   824  0314                     	;# 
   825  0314                     	;# 
   826  0315                     	;# 
   827  0316                     	;# 
   828  0318                     	;# 
   829  0318                     	;# 
   830  0319                     	;# 
   831  031A                     	;# 
   832  031C                     	;# 
   833  031C                     	;# 
   834  031D                     	;# 
   835  031E                     	;# 
   836  038C                     	;# 
   837  038C                     	;# 
   838  038D                     	;# 
   839  038E                     	;# 
   840  058C                     	;# 
   841  058C                     	;# 
   842  058D                     	;# 
   843  058E                     	;# 
   844  058F                     	;# 
   845  058F                     	;# 
   846  0590                     	;# 
   847  0591                     	;# 
   848  0592                     	;# 
   849  0593                     	;# 
   850  059C                     	;# 
   851  059C                     	;# 
   852  059D                     	;# 
   853  059D                     	;# 
   854  059E                     	;# 
   855  059F                     	;# 
   856  060C                     	;# 
   857  060D                     	;# 
   858  060E                     	;# 
   859  060F                     	;# 
   860  0610                     	;# 
   861  0611                     	;# 
   862  0612                     	;# 
   863  0613                     	;# 
   864  0614                     	;# 
   865  070C                     	;# 
   866  070D                     	;# 
   867  070E                     	;# 
   868  070F                     	;# 
   869  0710                     	;# 
   870  0711                     	;# 
   871  0712                     	;# 
   872  0713                     	;# 
   873  0716                     	;# 
   874  0717                     	;# 
   875  0718                     	;# 
   876  0719                     	;# 
   877  071A                     	;# 
   878  071B                     	;# 
   879  071C                     	;# 
   880  071D                     	;# 
   881  0796                     	;# 
   882  0797                     	;# 
   883  0798                     	;# 
   884  0799                     	;# 
   885  079A                     	;# 
   886  079B                     	;# 
   887  080C                     	;# 
   888  080D                     	;# 
   889  080E                     	;# 
   890  080F                     	;# 
   891  0810                     	;# 
   892  0811                     	;# 
   893  0812                     	;# 
   894  0813                     	;# 
   895  0814                     	;# 
   896  081A                     	;# 
   897  081A                     	;# 
   898  081B                     	;# 
   899  081C                     	;# 
   900  081C                     	;# 
   901  081D                     	;# 
   902  081E                     	;# 
   903  081F                     	;# 
   904  088C                     	;# 
   905  088D                     	;# 
   906  088E                     	;# 
   907  088F                     	;# 
   908  0890                     	;# 
   909  0891                     	;# 
   910  0892                     	;# 
   911  0893                     	;# 
   912  0895                     	;# 
   913  0896                     	;# 
   914  090C                     	;# 
   915  090E                     	;# 
   916  090F                     	;# 
   917  091F                     	;# 
   918  098F                     	;# 
   919  098F                     	;# 
   920  0990                     	;# 
   921  0991                     	;# 
   922  0992                     	;# 
   923  0993                     	;# 
   924  0994                     	;# 
   925  0995                     	;# 
   926  0996                     	;# 
   927  0997                     	;# 
   928  0A19                     	;# 
   929  0A19                     	;# 
   930  0A1A                     	;# 
   931  0A1A                     	;# 
   932  0A1B                     	;# 
   933  0A1B                     	;# 
   934  0A1B                     	;# 
   935  0A1C                     	;# 
   936  0A1C                     	;# 
   937  0A1D                     	;# 
   938  0A1D                     	;# 
   939  0A1E                     	;# 
   940  0A1E                     	;# 
   941  0A1F                     	;# 
   942  0A1F                     	;# 
   943  0A1F                     	;# 
   944  1E0F                     	;# 
   945  1E10                     	;# 
   946  1E11                     	;# 
   947  1E12                     	;# 
   948  1E13                     	;# 
   949  1E14                     	;# 
   950  1E15                     	;# 
   951  1E16                     	;# 
   952  1E17                     	;# 
   953  1E18                     	;# 
   954  1E19                     	;# 
   955  1E1A                     	;# 
   956  1E1B                     	;# 
   957  1E1C                     	;# 
   958  1E1D                     	;# 
   959  1E1E                     	;# 
   960  1E1F                     	;# 
   961  1E20                     	;# 
   962  1E21                     	;# 
   963  1E22                     	;# 
   964  1E23                     	;# 
   965  1E24                     	;# 
   966  1E25                     	;# 
   967  1E26                     	;# 
   968  1E27                     	;# 
   969  1E28                     	;# 
   970  1E29                     	;# 
   971  1E2A                     	;# 
   972  1E2B                     	;# 
   973  1E2C                     	;# 
   974  1E2D                     	;# 
   975  1E2E                     	;# 
   976  1E2F                     	;# 
   977  1E30                     	;# 
   978  1E31                     	;# 
   979  1E32                     	;# 
   980  1E33                     	;# 
   981  1E34                     	;# 
   982  1E35                     	;# 
   983  1E36                     	;# 
   984  1E37                     	;# 
   985  1E8F                     	;# 
   986  1E90                     	;# 
   987  1E91                     	;# 
   988  1E92                     	;# 
   989  1E93                     	;# 
   990  1E9C                     	;# 
   991  1EA1                     	;# 
   992  1EA2                     	;# 
   993  1EB1                     	;# 
   994  1EBB                     	;# 
   995  1EBC                     	;# 
   996  1EBD                     	;# 
   997  1EBE                     	;# 
   998  1EC3                     	;# 
   999  1EC5                     	;# 
  1000  1EC6                     	;# 
  1001  1EC7                     	;# 
  1002  1ECB                     	;# 
  1003  1ECC                     	;# 
  1004  1ECD                     	;# 
  1005  1ECE                     	;# 
  1006  1F10                     	;# 
  1007  1F11                     	;# 
  1008  1F12                     	;# 
  1009  1F13                     	;# 
  1010  1F14                     	;# 
  1011  1F15                     	;# 
  1012  1F1C                     	;# 
  1013  1F1D                     	;# 
  1014  1F1E                     	;# 
  1015  1F1F                     	;# 
  1016  1F20                     	;# 
  1017  1F21                     	;# 
  1018  1F22                     	;# 
  1019  1F23                     	;# 
  1020  1F24                     	;# 
  1021  1F25                     	;# 
  1022  1F26                     	;# 
  1023  1F27                     	;# 
  1024  1F38                     	;# 
  1025  1F39                     	;# 
  1026  1F3A                     	;# 
  1027  1F3B                     	;# 
  1028  1F3C                     	;# 
  1029  1F3D                     	;# 
  1030  1F3E                     	;# 
  1031  1F3F                     	;# 
  1032  1F43                     	;# 
  1033  1F44                     	;# 
  1034  1F45                     	;# 
  1035  1F46                     	;# 
  1036  1F47                     	;# 
  1037  1F48                     	;# 
  1038  1F49                     	;# 
  1039  1F4A                     	;# 
  1040  1F4E                     	;# 
  1041  1F4F                     	;# 
  1042  1F50                     	;# 
  1043  1F51                     	;# 
  1044  1F52                     	;# 
  1045  1F53                     	;# 
  1046  1F54                     	;# 
  1047  1F55                     	;# 
  1048  1FE4                     	;# 
  1049  1FE5                     	;# 
  1050  1FE6                     	;# 
  1051  1FE7                     	;# 
  1052  1FE8                     	;# 
  1053  1FE8                     	;# 
  1054  1FE9                     	;# 
  1055  1FEA                     	;# 
  1056  1FEA                     	;# 
  1057  1FEB                     	;# 
  1058  1FED                     	;# 
  1059  1FEE                     	;# 
  1060  1FEF                     	;# 
  1061  0000                     	;# 
  1062  0001                     	;# 
  1063  0002                     	;# 
  1064  0003                     	;# 
  1065  0004                     	;# 
  1066  0005                     	;# 
  1067  0006                     	;# 
  1068  0007                     	;# 
  1069  0008                     	;# 
  1070  0009                     	;# 
  1071  000A                     	;# 
  1072  000B                     	;# 
  1073  000C                     	;# 
  1074  000D                     	;# 
  1075  000E                     	;# 
  1076  0012                     	;# 
  1077  0013                     	;# 
  1078  0014                     	;# 
  1079  0018                     	;# 
  1080  0019                     	;# 
  1081  001A                     	;# 
  1082  009B                     	;# 
  1083  009B                     	;# 
  1084  009C                     	;# 
  1085  009D                     	;# 
  1086  009E                     	;# 
  1087  009F                     	;# 
  1088  0119                     	;# 
  1089  0119                     	;# 
  1090  0119                     	;# 
  1091  011A                     	;# 
  1092  011A                     	;# 
  1093  011A                     	;# 
  1094  011B                     	;# 
  1095  011B                     	;# 
  1096  011B                     	;# 
  1097  011B                     	;# 
  1098  011B                     	;# 
  1099  011C                     	;# 
  1100  011C                     	;# 
  1101  011C                     	;# 
  1102  011D                     	;# 
  1103  011D                     	;# 
  1104  011D                     	;# 
  1105  011E                     	;# 
  1106  011E                     	;# 
  1107  011E                     	;# 
  1108  011F                     	;# 
  1109  011F                     	;# 
  1110  011F                     	;# 
  1111  011F                     	;# 
  1112  011F                     	;# 
  1113  018C                     	;# 
  1114  018D                     	;# 
  1115  018E                     	;# 
  1116  018F                     	;# 
  1117  0190                     	;# 
  1118  0191                     	;# 
  1119  0192                     	;# 
  1120  020C                     	;# 
  1121  020C                     	;# 
  1122  020D                     	;# 
  1123  020E                     	;# 
  1124  020F                     	;# 
  1125  020F                     	;# 
  1126  0210                     	;# 
  1127  0210                     	;# 
  1128  0211                     	;# 
  1129  0211                     	;# 
  1130  028C                     	;# 
  1131  028C                     	;# 
  1132  028D                     	;# 
  1133  028D                     	;# 
  1134  028E                     	;# 
  1135  028F                     	;# 
  1136  0290                     	;# 
  1137  0291                     	;# 
  1138  030C                     	;# 
  1139  030C                     	;# 
  1140  030D                     	;# 
  1141  030E                     	;# 
  1142  030F                     	;# 
  1143  0310                     	;# 
  1144  0310                     	;# 
  1145  0311                     	;# 
  1146  0312                     	;# 
  1147  0313                     	;# 
  1148  0314                     	;# 
  1149  0314                     	;# 
  1150  0315                     	;# 
  1151  0316                     	;# 
  1152  0318                     	;# 
  1153  0318                     	;# 
  1154  0319                     	;# 
  1155  031A                     	;# 
  1156  031C                     	;# 
  1157  031C                     	;# 
  1158  031D                     	;# 
  1159  031E                     	;# 
  1160  038C                     	;# 
  1161  038C                     	;# 
  1162  038D                     	;# 
  1163  038E                     	;# 
  1164  058C                     	;# 
  1165  058C                     	;# 
  1166  058D                     	;# 
  1167  058E                     	;# 
  1168  058F                     	;# 
  1169  058F                     	;# 
  1170  0590                     	;# 
  1171  0591                     	;# 
  1172  0592                     	;# 
  1173  0593                     	;# 
  1174  059C                     	;# 
  1175  059C                     	;# 
  1176  059D                     	;# 
  1177  059D                     	;# 
  1178  059E                     	;# 
  1179  059F                     	;# 
  1180  060C                     	;# 
  1181  060D                     	;# 
  1182  060E                     	;# 
  1183  060F                     	;# 
  1184  0610                     	;# 
  1185  0611                     	;# 
  1186  0612                     	;# 
  1187  0613                     	;# 
  1188  0614                     	;# 
  1189  070C                     	;# 
  1190  070D                     	;# 
  1191  070E                     	;# 
  1192  070F                     	;# 
  1193  0710                     	;# 
  1194  0711                     	;# 
  1195  0712                     	;# 
  1196  0713                     	;# 
  1197  0716                     	;# 
  1198  0717                     	;# 
  1199  0718                     	;# 
  1200  0719                     	;# 
  1201  071A                     	;# 
  1202  071B                     	;# 
  1203  071C                     	;# 
  1204  071D                     	;# 
  1205  0796                     	;# 
  1206  0797                     	;# 
  1207  0798                     	;# 
  1208  0799                     	;# 
  1209  079A                     	;# 
  1210  079B                     	;# 
  1211  080C                     	;# 
  1212  080D                     	;# 
  1213  080E                     	;# 
  1214  080F                     	;# 
  1215  0810                     	;# 
  1216  0811                     	;# 
  1217  0812                     	;# 
  1218  0813                     	;# 
  1219  0814                     	;# 
  1220  081A                     	;# 
  1221  081A                     	;# 
  1222  081B                     	;# 
  1223  081C                     	;# 
  1224  081C                     	;# 
  1225  081D                     	;# 
  1226  081E                     	;# 
  1227  081F                     	;# 
  1228  088C                     	;# 
  1229  088D                     	;# 
  1230  088E                     	;# 
  1231  088F                     	;# 
  1232  0890                     	;# 
  1233  0891                     	;# 
  1234  0892                     	;# 
  1235  0893                     	;# 
  1236  0895                     	;# 
  1237  0896                     	;# 
  1238  090C                     	;# 
  1239  090E                     	;# 
  1240  090F                     	;# 
  1241  091F                     	;# 
  1242  098F                     	;# 
  1243  098F                     	;# 
  1244  0990                     	;# 
  1245  0991                     	;# 
  1246  0992                     	;# 
  1247  0993                     	;# 
  1248  0994                     	;# 
  1249  0995                     	;# 
  1250  0996                     	;# 
  1251  0997                     	;# 
  1252  0A19                     	;# 
  1253  0A19                     	;# 
  1254  0A1A                     	;# 
  1255  0A1A                     	;# 
  1256  0A1B                     	;# 
  1257  0A1B                     	;# 
  1258  0A1B                     	;# 
  1259  0A1C                     	;# 
  1260  0A1C                     	;# 
  1261  0A1D                     	;# 
  1262  0A1D                     	;# 
  1263  0A1E                     	;# 
  1264  0A1E                     	;# 
  1265  0A1F                     	;# 
  1266  0A1F                     	;# 
  1267  0A1F                     	;# 
  1268  1E0F                     	;# 
  1269  1E10                     	;# 
  1270  1E11                     	;# 
  1271  1E12                     	;# 
  1272  1E13                     	;# 
  1273  1E14                     	;# 
  1274  1E15                     	;# 
  1275  1E16                     	;# 
  1276  1E17                     	;# 
  1277  1E18                     	;# 
  1278  1E19                     	;# 
  1279  1E1A                     	;# 
  1280  1E1B                     	;# 
  1281  1E1C                     	;# 
  1282  1E1D                     	;# 
  1283  1E1E                     	;# 
  1284  1E1F                     	;# 
  1285  1E20                     	;# 
  1286  1E21                     	;# 
  1287  1E22                     	;# 
  1288  1E23                     	;# 
  1289  1E24                     	;# 
  1290  1E25                     	;# 
  1291  1E26                     	;# 
  1292  1E27                     	;# 
  1293  1E28                     	;# 
  1294  1E29                     	;# 
  1295  1E2A                     	;# 
  1296  1E2B                     	;# 
  1297  1E2C                     	;# 
  1298  1E2D                     	;# 
  1299  1E2E                     	;# 
  1300  1E2F                     	;# 
  1301  1E30                     	;# 
  1302  1E31                     	;# 
  1303  1E32                     	;# 
  1304  1E33                     	;# 
  1305  1E34                     	;# 
  1306  1E35                     	;# 
  1307  1E36                     	;# 
  1308  1E37                     	;# 
  1309  1E8F                     	;# 
  1310  1E90                     	;# 
  1311  1E91                     	;# 
  1312  1E92                     	;# 
  1313  1E93                     	;# 
  1314  1E9C                     	;# 
  1315  1EA1                     	;# 
  1316  1EA2                     	;# 
  1317  1EB1                     	;# 
  1318  1EBB                     	;# 
  1319  1EBC                     	;# 
  1320  1EBD                     	;# 
  1321  1EBE                     	;# 
  1322  1EC3                     	;# 
  1323  1EC5                     	;# 
  1324  1EC6                     	;# 
  1325  1EC7                     	;# 
  1326  1ECB                     	;# 
  1327  1ECC                     	;# 
  1328  1ECD                     	;# 
  1329  1ECE                     	;# 
  1330  1F10                     	;# 
  1331  1F11                     	;# 
  1332  1F12                     	;# 
  1333  1F13                     	;# 
  1334  1F14                     	;# 
  1335  1F15                     	;# 
  1336  1F1C                     	;# 
  1337  1F1D                     	;# 
  1338  1F1E                     	;# 
  1339  1F1F                     	;# 
  1340  1F20                     	;# 
  1341  1F21                     	;# 
  1342  1F22                     	;# 
  1343  1F23                     	;# 
  1344  1F24                     	;# 
  1345  1F25                     	;# 
  1346  1F26                     	;# 
  1347  1F27                     	;# 
  1348  1F38                     	;# 
  1349  1F39                     	;# 
  1350  1F3A                     	;# 
  1351  1F3B                     	;# 
  1352  1F3C                     	;# 
  1353  1F3D                     	;# 
  1354  1F3E                     	;# 
  1355  1F3F                     	;# 
  1356  1F43                     	;# 
  1357  1F44                     	;# 
  1358  1F45                     	;# 
  1359  1F46                     	;# 
  1360  1F47                     	;# 
  1361  1F48                     	;# 
  1362  1F49                     	;# 
  1363  1F4A                     	;# 
  1364  1F4E                     	;# 
  1365  1F4F                     	;# 
  1366  1F50                     	;# 
  1367  1F51                     	;# 
  1368  1F52                     	;# 
  1369  1F53                     	;# 
  1370  1F54                     	;# 
  1371  1F55                     	;# 
  1372  1FE4                     	;# 
  1373  1FE5                     	;# 
  1374  1FE6                     	;# 
  1375  1FE7                     	;# 
  1376  1FE8                     	;# 
  1377  1FE8                     	;# 
  1378  1FE9                     	;# 
  1379  1FEA                     	;# 
  1380  1FEA                     	;# 
  1381  1FEB                     	;# 
  1382  1FED                     	;# 
  1383  1FEE                     	;# 
  1384  1FEF                     	;# 
  1385  0000                     	;# 
  1386  0001                     	;# 
  1387  0002                     	;# 
  1388  0003                     	;# 
  1389  0004                     	;# 
  1390  0005                     	;# 
  1391  0006                     	;# 
  1392  0007                     	;# 
  1393  0008                     	;# 
  1394  0009                     	;# 
  1395  000A                     	;# 
  1396  000B                     	;# 
  1397  000C                     	;# 
  1398  000D                     	;# 
  1399  000E                     	;# 
  1400  0012                     	;# 
  1401  0013                     	;# 
  1402  0014                     	;# 
  1403  0018                     	;# 
  1404  0019                     	;# 
  1405  001A                     	;# 
  1406  009B                     	;# 
  1407  009B                     	;# 
  1408  009C                     	;# 
  1409  009D                     	;# 
  1410  009E                     	;# 
  1411  009F                     	;# 
  1412  0119                     	;# 
  1413  0119                     	;# 
  1414  0119                     	;# 
  1415  011A                     	;# 
  1416  011A                     	;# 
  1417  011A                     	;# 
  1418  011B                     	;# 
  1419  011B                     	;# 
  1420  011B                     	;# 
  1421  011B                     	;# 
  1422  011B                     	;# 
  1423  011C                     	;# 
  1424  011C                     	;# 
  1425  011C                     	;# 
  1426  011D                     	;# 
  1427  011D                     	;# 
  1428  011D                     	;# 
  1429  011E                     	;# 
  1430  011E                     	;# 
  1431  011E                     	;# 
  1432  011F                     	;# 
  1433  011F                     	;# 
  1434  011F                     	;# 
  1435  011F                     	;# 
  1436  011F                     	;# 
  1437  018C                     	;# 
  1438  018D                     	;# 
  1439  018E                     	;# 
  1440  018F                     	;# 
  1441  0190                     	;# 
  1442  0191                     	;# 
  1443  0192                     	;# 
  1444  020C                     	;# 
  1445  020C                     	;# 
  1446  020D                     	;# 
  1447  020E                     	;# 
  1448  020F                     	;# 
  1449  020F                     	;# 
  1450  0210                     	;# 
  1451  0210                     	;# 
  1452  0211                     	;# 
  1453  0211                     	;# 
  1454  028C                     	;# 
  1455  028C                     	;# 
  1456  028D                     	;# 
  1457  028D                     	;# 
  1458  028E                     	;# 
  1459  028F                     	;# 
  1460  0290                     	;# 
  1461  0291                     	;# 
  1462  030C                     	;# 
  1463  030C                     	;# 
  1464  030D                     	;# 
  1465  030E                     	;# 
  1466  030F                     	;# 
  1467  0310                     	;# 
  1468  0310                     	;# 
  1469  0311                     	;# 
  1470  0312                     	;# 
  1471  0313                     	;# 
  1472  0314                     	;# 
  1473  0314                     	;# 
  1474  0315                     	;# 
  1475  0316                     	;# 
  1476  0318                     	;# 
  1477  0318                     	;# 
  1478  0319                     	;# 
  1479  031A                     	;# 
  1480  031C                     	;# 
  1481  031C                     	;# 
  1482  031D                     	;# 
  1483  031E                     	;# 
  1484  038C                     	;# 
  1485  038C                     	;# 
  1486  038D                     	;# 
  1487  038E                     	;# 
  1488  058C                     	;# 
  1489  058C                     	;# 
  1490  058D                     	;# 
  1491  058E                     	;# 
  1492  058F                     	;# 
  1493  058F                     	;# 
  1494  0590                     	;# 
  1495  0591                     	;# 
  1496  0592                     	;# 
  1497  0593                     	;# 
  1498  059C                     	;# 
  1499  059C                     	;# 
  1500  059D                     	;# 
  1501  059D                     	;# 
  1502  059E                     	;# 
  1503  059F                     	;# 
  1504  060C                     	;# 
  1505  060D                     	;# 
  1506  060E                     	;# 
  1507  060F                     	;# 
  1508  0610                     	;# 
  1509  0611                     	;# 
  1510  0612                     	;# 
  1511  0613                     	;# 
  1512  0614                     	;# 
  1513  070C                     	;# 
  1514  070D                     	;# 
  1515  070E                     	;# 
  1516  070F                     	;# 
  1517  0710                     	;# 
  1518  0711                     	;# 
  1519  0712                     	;# 
  1520  0713                     	;# 
  1521  0716                     	;# 
  1522  0717                     	;# 
  1523  0718                     	;# 
  1524  0719                     	;# 
  1525  071A                     	;# 
  1526  071B                     	;# 
  1527  071C                     	;# 
  1528  071D                     	;# 
  1529  0796                     	;# 
  1530  0797                     	;# 
  1531  0798                     	;# 
  1532  0799                     	;# 
  1533  079A                     	;# 
  1534  079B                     	;# 
  1535  080C                     	;# 
  1536  080D                     	;# 
  1537  080E                     	;# 
  1538  080F                     	;# 
  1539  0810                     	;# 
  1540  0811                     	;# 
  1541  0812                     	;# 
  1542  0813                     	;# 
  1543  0814                     	;# 
  1544  081A                     	;# 
  1545  081A                     	;# 
  1546  081B                     	;# 
  1547  081C                     	;# 
  1548  081C                     	;# 
  1549  081D                     	;# 
  1550  081E                     	;# 
  1551  081F                     	;# 
  1552  088C                     	;# 
  1553  088D                     	;# 
  1554  088E                     	;# 
  1555  088F                     	;# 
  1556  0890                     	;# 
  1557  0891                     	;# 
  1558  0892                     	;# 
  1559  0893                     	;# 
  1560  0895                     	;# 
  1561  0896                     	;# 
  1562  090C                     	;# 
  1563  090E                     	;# 
  1564  090F                     	;# 
  1565  091F                     	;# 
  1566  098F                     	;# 
  1567  098F                     	;# 
  1568  0990                     	;# 
  1569  0991                     	;# 
  1570  0992                     	;# 
  1571  0993                     	;# 
  1572  0994                     	;# 
  1573  0995                     	;# 
  1574  0996                     	;# 
  1575  0997                     	;# 
  1576  0A19                     	;# 
  1577  0A19                     	;# 
  1578  0A1A                     	;# 
  1579  0A1A                     	;# 
  1580  0A1B                     	;# 
  1581  0A1B                     	;# 
  1582  0A1B                     	;# 
  1583  0A1C                     	;# 
  1584  0A1C                     	;# 
  1585  0A1D                     	;# 
  1586  0A1D                     	;# 
  1587  0A1E                     	;# 
  1588  0A1E                     	;# 
  1589  0A1F                     	;# 
  1590  0A1F                     	;# 
  1591  0A1F                     	;# 
  1592  1E0F                     	;# 
  1593  1E10                     	;# 
  1594  1E11                     	;# 
  1595  1E12                     	;# 
  1596  1E13                     	;# 
  1597  1E14                     	;# 
  1598  1E15                     	;# 
  1599  1E16                     	;# 
  1600  1E17                     	;# 
  1601  1E18                     	;# 
  1602  1E19                     	;# 
  1603  1E1A                     	;# 
  1604  1E1B                     	;# 
  1605  1E1C                     	;# 
  1606  1E1D                     	;# 
  1607  1E1E                     	;# 
  1608  1E1F                     	;# 
  1609  1E20                     	;# 
  1610  1E21                     	;# 
  1611  1E22                     	;# 
  1612  1E23                     	;# 
  1613  1E24                     	;# 
  1614  1E25                     	;# 
  1615  1E26                     	;# 
  1616  1E27                     	;# 
  1617  1E28                     	;# 
  1618  1E29                     	;# 
  1619  1E2A                     	;# 
  1620  1E2B                     	;# 
  1621  1E2C                     	;# 
  1622  1E2D                     	;# 
  1623  1E2E                     	;# 
  1624  1E2F                     	;# 
  1625  1E30                     	;# 
  1626  1E31                     	;# 
  1627  1E32                     	;# 
  1628  1E33                     	;# 
  1629  1E34                     	;# 
  1630  1E35                     	;# 
  1631  1E36                     	;# 
  1632  1E37                     	;# 
  1633  1E8F                     	;# 
  1634  1E90                     	;# 
  1635  1E91                     	;# 
  1636  1E92                     	;# 
  1637  1E93                     	;# 
  1638  1E9C                     	;# 
  1639  1EA1                     	;# 
  1640  1EA2                     	;# 
  1641  1EB1                     	;# 
  1642  1EBB                     	;# 
  1643  1EBC                     	;# 
  1644  1EBD                     	;# 
  1645  1EBE                     	;# 
  1646  1EC3                     	;# 
  1647  1EC5                     	;# 
  1648  1EC6                     	;# 
  1649  1EC7                     	;# 
  1650  1ECB                     	;# 
  1651  1ECC                     	;# 
  1652  1ECD                     	;# 
  1653  1ECE                     	;# 
  1654  1F10                     	;# 
  1655  1F11                     	;# 
  1656  1F12                     	;# 
  1657  1F13                     	;# 
  1658  1F14                     	;# 
  1659  1F15                     	;# 
  1660  1F1C                     	;# 
  1661  1F1D                     	;# 
  1662  1F1E                     	;# 
  1663  1F1F                     	;# 
  1664  1F20                     	;# 
  1665  1F21                     	;# 
  1666  1F22                     	;# 
  1667  1F23                     	;# 
  1668  1F24                     	;# 
  1669  1F25                     	;# 
  1670  1F26                     	;# 
  1671  1F27                     	;# 
  1672  1F38                     	;# 
  1673  1F39                     	;# 
  1674  1F3A                     	;# 
  1675  1F3B                     	;# 
  1676  1F3C                     	;# 
  1677  1F3D                     	;# 
  1678  1F3E                     	;# 
  1679  1F3F                     	;# 
  1680  1F43                     	;# 
  1681  1F44                     	;# 
  1682  1F45                     	;# 
  1683  1F46                     	;# 
  1684  1F47                     	;# 
  1685  1F48                     	;# 
  1686  1F49                     	;# 
  1687  1F4A                     	;# 
  1688  1F4E                     	;# 
  1689  1F4F                     	;# 
  1690  1F50                     	;# 
  1691  1F51                     	;# 
  1692  1F52                     	;# 
  1693  1F53                     	;# 
  1694  1F54                     	;# 
  1695  1F55                     	;# 
  1696  1FE4                     	;# 
  1697  1FE5                     	;# 
  1698  1FE6                     	;# 
  1699  1FE7                     	;# 
  1700  1FE8                     	;# 
  1701  1FE8                     	;# 
  1702  1FE9                     	;# 
  1703  1FEA                     	;# 
  1704  1FEA                     	;# 
  1705  1FEB                     	;# 
  1706  1FED                     	;# 
  1707  1FEE                     	;# 
  1708  1FEF                     	;# 
  1709  0000                     	;# 
  1710  0001                     	;# 
  1711  0002                     	;# 
  1712  0003                     	;# 
  1713  0004                     	;# 
  1714  0005                     	;# 
  1715  0006                     	;# 
  1716  0007                     	;# 
  1717  0008                     	;# 
  1718  0009                     	;# 
  1719  000A                     	;# 
  1720  000B                     	;# 
  1721  000C                     	;# 
  1722  000D                     	;# 
  1723  000E                     	;# 
  1724  0012                     	;# 
  1725  0013                     	;# 
  1726  0014                     	;# 
  1727  0018                     	;# 
  1728  0019                     	;# 
  1729  001A                     	;# 
  1730  009B                     	;# 
  1731  009B                     	;# 
  1732  009C                     	;# 
  1733  009D                     	;# 
  1734  009E                     	;# 
  1735  009F                     	;# 
  1736  0119                     	;# 
  1737  0119                     	;# 
  1738  0119                     	;# 
  1739  011A                     	;# 
  1740  011A                     	;# 
  1741  011A                     	;# 
  1742  011B                     	;# 
  1743  011B                     	;# 
  1744  011B                     	;# 
  1745  011B                     	;# 
  1746  011B                     	;# 
  1747  011C                     	;# 
  1748  011C                     	;# 
  1749  011C                     	;# 
  1750  011D                     	;# 
  1751  011D                     	;# 
  1752  011D                     	;# 
  1753  011E                     	;# 
  1754  011E                     	;# 
  1755  011E                     	;# 
  1756  011F                     	;# 
  1757  011F                     	;# 
  1758  011F                     	;# 
  1759  011F                     	;# 
  1760  011F                     	;# 
  1761  018C                     	;# 
  1762  018D                     	;# 
  1763  018E                     	;# 
  1764  018F                     	;# 
  1765  0190                     	;# 
  1766  0191                     	;# 
  1767  0192                     	;# 
  1768  020C                     	;# 
  1769  020C                     	;# 
  1770  020D                     	;# 
  1771  020E                     	;# 
  1772  020F                     	;# 
  1773  020F                     	;# 
  1774  0210                     	;# 
  1775  0210                     	;# 
  1776  0211                     	;# 
  1777  0211                     	;# 
  1778  028C                     	;# 
  1779  028C                     	;# 
  1780  028D                     	;# 
  1781  028D                     	;# 
  1782  028E                     	;# 
  1783  028F                     	;# 
  1784  0290                     	;# 
  1785  0291                     	;# 
  1786  030C                     	;# 
  1787  030C                     	;# 
  1788  030D                     	;# 
  1789  030E                     	;# 
  1790  030F                     	;# 
  1791  0310                     	;# 
  1792  0310                     	;# 
  1793  0311                     	;# 
  1794  0312                     	;# 
  1795  0313                     	;# 
  1796  0314                     	;# 
  1797  0314                     	;# 
  1798  0315                     	;# 
  1799  0316                     	;# 
  1800  0318                     	;# 
  1801  0318                     	;# 
  1802  0319                     	;# 
  1803  031A                     	;# 
  1804  031C                     	;# 
  1805  031C                     	;# 
  1806  031D                     	;# 
  1807  031E                     	;# 
  1808  038C                     	;# 
  1809  038C                     	;# 
  1810  038D                     	;# 
  1811  038E                     	;# 
  1812  058C                     	;# 
  1813  058C                     	;# 
  1814  058D                     	;# 
  1815  058E                     	;# 
  1816  058F                     	;# 
  1817  058F                     	;# 
  1818  0590                     	;# 
  1819  0591                     	;# 
  1820  0592                     	;# 
  1821  0593                     	;# 
  1822  059C                     	;# 
  1823  059C                     	;# 
  1824  059D                     	;# 
  1825  059D                     	;# 
  1826  059E                     	;# 
  1827  059F                     	;# 
  1828  060C                     	;# 
  1829  060D                     	;# 
  1830  060E                     	;# 
  1831  060F                     	;# 
  1832  0610                     	;# 
  1833  0611                     	;# 
  1834  0612                     	;# 
  1835  0613                     	;# 
  1836  0614                     	;# 
  1837  070C                     	;# 
  1838  070D                     	;# 
  1839  070E                     	;# 
  1840  070F                     	;# 
  1841  0710                     	;# 
  1842  0711                     	;# 
  1843  0712                     	;# 
  1844  0713                     	;# 
  1845  0716                     	;# 
  1846  0717                     	;# 
  1847  0718                     	;# 
  1848  0719                     	;# 
  1849  071A                     	;# 
  1850  071B                     	;# 
  1851  071C                     	;# 
  1852  071D                     	;# 
  1853  0796                     	;# 
  1854  0797                     	;# 
  1855  0798                     	;# 
  1856  0799                     	;# 
  1857  079A                     	;# 
  1858  079B                     	;# 
  1859  080C                     	;# 
  1860  080D                     	;# 
  1861  080E                     	;# 
  1862  080F                     	;# 
  1863  0810                     	;# 
  1864  0811                     	;# 
  1865  0812                     	;# 
  1866  0813                     	;# 
  1867  0814                     	;# 
  1868  081A                     	;# 
  1869  081A                     	;# 
  1870  081B                     	;# 
  1871  081C                     	;# 
  1872  081C                     	;# 
  1873  081D                     	;# 
  1874  081E                     	;# 
  1875  081F                     	;# 
  1876  088C                     	;# 
  1877  088D                     	;# 
  1878  088E                     	;# 
  1879  088F                     	;# 
  1880  0890                     	;# 
  1881  0891                     	;# 
  1882  0892                     	;# 
  1883  0893                     	;# 
  1884  0895                     	;# 
  1885  0896                     	;# 
  1886  090C                     	;# 
  1887  090E                     	;# 
  1888  090F                     	;# 
  1889  091F                     	;# 
  1890  098F                     	;# 
  1891  098F                     	;# 
  1892  0990                     	;# 
  1893  0991                     	;# 
  1894  0992                     	;# 
  1895  0993                     	;# 
  1896  0994                     	;# 
  1897  0995                     	;# 
  1898  0996                     	;# 
  1899  0997                     	;# 
  1900  0A19                     	;# 
  1901  0A19                     	;# 
  1902  0A1A                     	;# 
  1903  0A1A                     	;# 
  1904  0A1B                     	;# 
  1905  0A1B                     	;# 
  1906  0A1B                     	;# 
  1907  0A1C                     	;# 
  1908  0A1C                     	;# 
  1909  0A1D                     	;# 
  1910  0A1D                     	;# 
  1911  0A1E                     	;# 
  1912  0A1E                     	;# 
  1913  0A1F                     	;# 
  1914  0A1F                     	;# 
  1915  0A1F                     	;# 
  1916  1E0F                     	;# 
  1917  1E10                     	;# 
  1918  1E11                     	;# 
  1919  1E12                     	;# 
  1920  1E13                     	;# 
  1921  1E14                     	;# 
  1922  1E15                     	;# 
  1923  1E16                     	;# 
  1924  1E17                     	;# 
  1925  1E18                     	;# 
  1926  1E19                     	;# 
  1927  1E1A                     	;# 
  1928  1E1B                     	;# 
  1929  1E1C                     	;# 
  1930  1E1D                     	;# 
  1931  1E1E                     	;# 
  1932  1E1F                     	;# 
  1933  1E20                     	;# 
  1934  1E21                     	;# 
  1935  1E22                     	;# 
  1936  1E23                     	;# 
  1937  1E24                     	;# 
  1938  1E25                     	;# 
  1939  1E26                     	;# 
  1940  1E27                     	;# 
  1941  1E28                     	;# 
  1942  1E29                     	;# 
  1943  1E2A                     	;# 
  1944  1E2B                     	;# 
  1945  1E2C                     	;# 
  1946  1E2D                     	;# 
  1947  1E2E                     	;# 
  1948  1E2F                     	;# 
  1949  1E30                     	;# 
  1950  1E31                     	;# 
  1951  1E32                     	;# 
  1952  1E33                     	;# 
  1953  1E34                     	;# 
  1954  1E35                     	;# 
  1955  1E36                     	;# 
  1956  1E37                     	;# 
  1957  1E8F                     	;# 
  1958  1E90                     	;# 
  1959  1E91                     	;# 
  1960  1E92                     	;# 
  1961  1E93                     	;# 
  1962  1E9C                     	;# 
  1963  1EA1                     	;# 
  1964  1EA2                     	;# 
  1965  1EB1                     	;# 
  1966  1EBB                     	;# 
  1967  1EBC                     	;# 
  1968  1EBD                     	;# 
  1969  1EBE                     	;# 
  1970  1EC3                     	;# 
  1971  1EC5                     	;# 
  1972  1EC6                     	;# 
  1973  1EC7                     	;# 
  1974  1ECB                     	;# 
  1975  1ECC                     	;# 
  1976  1ECD                     	;# 
  1977  1ECE                     	;# 
  1978  1F10                     	;# 
  1979  1F11                     	;# 
  1980  1F12                     	;# 
  1981  1F13                     	;# 
  1982  1F14                     	;# 
  1983  1F15                     	;# 
  1984  1F1C                     	;# 
  1985  1F1D                     	;# 
  1986  1F1E                     	;# 
  1987  1F1F                     	;# 
  1988  1F20                     	;# 
  1989  1F21                     	;# 
  1990  1F22                     	;# 
  1991  1F23                     	;# 
  1992  1F24                     	;# 
  1993  1F25                     	;# 
  1994  1F26                     	;# 
  1995  1F27                     	;# 
  1996  1F38                     	;# 
  1997  1F39                     	;# 
  1998  1F3A                     	;# 
  1999  1F3B                     	;# 
  2000  1F3C                     	;# 
  2001  1F3D                     	;# 
  2002  1F3E                     	;# 
  2003  1F3F                     	;# 
  2004  1F43                     	;# 
  2005  1F44                     	;# 
  2006  1F45                     	;# 
  2007  1F46                     	;# 
  2008  1F47                     	;# 
  2009  1F48                     	;# 
  2010  1F49                     	;# 
  2011  1F4A                     	;# 
  2012  1F4E                     	;# 
  2013  1F4F                     	;# 
  2014  1F50                     	;# 
  2015  1F51                     	;# 
  2016  1F52                     	;# 
  2017  1F53                     	;# 
  2018  1F54                     	;# 
  2019  1F55                     	;# 
  2020  1FE4                     	;# 
  2021  1FE5                     	;# 
  2022  1FE6                     	;# 
  2023  1FE7                     	;# 
  2024  1FE8                     	;# 
  2025  1FE8                     	;# 
  2026  1FE9                     	;# 
  2027  1FEA                     	;# 
  2028  1FEA                     	;# 
  2029  1FEB                     	;# 
  2030  1FED                     	;# 
  2031  1FEE                     	;# 
  2032  1FEF                     	;# 
  2033                           
  2034 ;; Function _TMR1_DefaultInterruptHandler is unused but had its address taken
  2035  0000                     
  2036 ;; Function _IOCCF3_DefaultInterruptHandler is unused but had its address taken
  2037  0000                     
  2038 ;; Function _EUSART1_DefaultFramingErrorHandler is unused but had its address taken
  2039  0000                     
  2040 ;; Function _EUSART1_DefaultOverrunErrorHandler is unused but had its address taken
  2041  0000                     
  2042 ;; Function _EUSART1_DefaultErrorHandler is unused but had its address taken
  2043  0000                     
  2044                           	psect	nvBANK1
  2045  00E5                     __pnvBANK1:
  2046  00E5                     _EUSART1_OverrunErrorHandler:
  2047  00E5                     	ds	2
  2048  00E7                     _EUSART1_FramingErrorHandler:
  2049  00E7                     	ds	2
  2050  00E9                     _IOCCF3_InterruptHandler:
  2051  00E9                     	ds	2
  2052  00EB                     _TMR1_InterruptHandler:
  2053  00EB                     	ds	2
  2054  00ED                     _timer1ReloadVal:
  2055  00ED                     	ds	2
  2056                           
  2057                           	psect	nvBANK2
  2058  0140                     __pnvBANK2:
  2059  0140                     _EUSART1_ErrorHandler:
  2060  0140                     	ds	2
  2061  0014                     _TRISC	set	20
  2062  0013                     _TRISB	set	19
  2063  0012                     _TRISA	set	18
  2064  001A                     _LATC	set	26
  2065  0019                     _LATB	set	25
  2066  0018                     _LATA	set	24
  2067  000E                     _PORTCbits	set	14
  2068  000B                     _INTCONbits	set	11
  2069  011A                     _TX1REG	set	282
  2070  0119                     _RC1REG	set	281
  2071  011D                     _RC1STAbits	set	285
  2072  011E                     _TX1STAbits	set	286
  2073  011C                     _SP1BRGH	set	284
  2074  011B                     _SP1BRGL	set	283
  2075  011E                     _TX1STA	set	286
  2076  011D                     _RC1STA	set	285
  2077  011F                     _BAUD1CON	set	287
  2078  020F                     _T1GCONbits	set	527
  2079  020E                     _T1CONbits	set	526
  2080  020E                     _T1CON	set	526
  2081  020C                     _TMR1L	set	524
  2082  020D                     _TMR1H	set	525
  2083  0211                     _T1CLK	set	529
  2084  0210                     _T1GATE	set	528
  2085  020F                     _T1GCON	set	527
  2086  070F                     _PIR3bits	set	1807
  2087  0710                     _PIR4bits	set	1808
  2088  071A                     _PIE4bits	set	1818
  2089  070C                     _PIR0bits	set	1804
  2090  0716                     _PIE0bits	set	1814
  2091  079B                     _PMD5	set	1947
  2092  079A                     _PMD4	set	1946
  2093  0799                     _PMD3	set	1945
  2094  0798                     _PMD2	set	1944
  2095  0797                     _PMD1	set	1943
  2096  0796                     _PMD0	set	1942
  2097  0892                     _OSCTUNE	set	2194
  2098  0890                     _OSCSTAT	set	2192
  2099  0893                     _OSCFRQ	set	2195
  2100  0891                     _OSCEN	set	2193
  2101  088F                     _OSCCON3	set	2191
  2102  088D                     _OSCCON1	set	2189
  2103  1F25                     _RC5PPS	set	7973
  2104  1F53                     _IOCCPbits	set	8019
  2105  1F54                     _IOCCNbits	set	8020
  2106  1F52                     _INLVLC	set	8018
  2107  1F47                     _INLVLB	set	8007
  2108  1F3C                     _INLVLA	set	7996
  2109  1F51                     _SLRCONC	set	8017
  2110  1F46                     _SLRCONB	set	8006
  2111  1F3B                     _SLRCONA	set	7995
  2112  1F50                     _ODCONC	set	8016
  2113  1F45                     _ODCONB	set	8005
  2114  1F3A                     _ODCONA	set	7994
  2115  1F4F                     _WPUC	set	8015
  2116  1F39                     _WPUA	set	7993
  2117  1F44                     _WPUB	set	8004
  2118  1F38                     _ANSELA	set	7992
  2119  1F43                     _ANSELB	set	8003
  2120  1F4E                     _ANSELC	set	8014
  2121  1F55                     _IOCCFbits	set	8021
  2122                           
  2123                           	psect	stringtext1
  2124  070D                     __pstringtext1:
  2125  070D                     STR_1:
  2126  070D  3449               	retlw	73	;'I'
  2127  070E  3452               	retlw	82	;'R'
  2128  070F  343D               	retlw	61	;'='
  2129  0710  3420               	retlw	32	;' '
  2130  0711  3425               	retlw	37	;'%'
  2131  0712  3464               	retlw	100	;'d'
  2132  0713  3400               	retlw	0
  2133                           
  2134                           	psect	stringtext2
  2135  0000                     __pstringtext2:
  2136                           
  2137                           	psect	cinit
  2138  0027                     start_initialization:	
  2139                           ; #config settings
  2140                           
  2141  0027                     __initialization:
  2142                           
  2143                           ; Clear objects allocated to COMMON
  2144  0027  01FA               	clrf	__pbssCOMMON& (0+127)
  2145  0028  01FB               	clrf	(__pbssCOMMON+1)& (0+127)
  2146                           
  2147                           ; Clear objects allocated to BANK1
  2148  0029  30A0               	movlw	low __pbssBANK1
  2149  002A  0084               	movwf	4
  2150  002B  3000               	movlw	high __pbssBANK1
  2151  002C  0085               	movwf	5
  2152  002D  3033               	movlw	51
  2153  002E  3187  2714  3180   	fcall	clear_ram0
  2154                           
  2155                           ; Clear objects allocated to BANK2
  2156  0031  3020               	movlw	low __pbssBANK2
  2157  0032  0084               	movwf	4
  2158  0033  3001               	movlw	high __pbssBANK2
  2159  0034  0085               	movwf	5
  2160  0035  3020               	movlw	32
  2161  0036  3187  2714  3180   	fcall	clear_ram0
  2162  0039                     end_of_initialization:	
  2163                           ;End of C runtime variable initialization code
  2164                           
  2165  0039                     __end_of__initialization:
  2166  0039  107E               	bcf	int$flags,0	;clear compiler interrupt flag (level 1)
  2167  003A  0140               	movlb	0
  2168  003B  3185  2D17         	ljmp	_main	;jump to C main() function
  2169                           
  2170                           	psect	bssCOMMON
  2171  007A                     __pbssCOMMON:
  2172  007A                     _flags:
  2173  007A                     	ds	2
  2174                           
  2175                           	psect	bssBANK1
  2176  00A0                     __pbssBANK1:
  2177  00A0                     _nout:
  2178  00A0                     	ds	2
  2179  00A2                     _width:
  2180  00A2                     	ds	2
  2181  00A4                     _prec:
  2182  00A4                     	ds	2
  2183  00A6                     _count:
  2184  00A6                     	ds	2
  2185  00A8                     _GotData:
  2186  00A8                     	ds	2
  2187  00AA                     _eusart1RxLastError:
  2188  00AA                     	ds	1
  2189  00AB                     _sendbuff:
  2190  00AB                     	ds	20
  2191  00BF                     _Buff:
  2192  00BF                     	ds	20
  2193                           
  2194                           	psect	bssBANK2
  2195  0120                     __pbssBANK2:
  2196  0120                     _dbuf:
  2197  0120                     	ds	32
  2198                           
  2199                           	psect	clrtext
  2200  0714                     clear_ram0:	
  2201                           ;	Called with FSR0 containing the base address, and
  2202                           ;	WREG with the size to clear
  2203                           
  2204  0714  0064               	clrwdt	;clear the watchdog before getting into this loop
  2205  0715                     clrloop0:
  2206  0715  0180               	clrf	0	;clear RAM location pointed to by FSR
  2207  0716  3101               	addfsr 0,1
  2208  0717  0B89               	decfsz	9,f	;Have we reached the end of clearing yet?
  2209  0718  2F15               	goto	clrloop0	;have we reached the end yet?
  2210  0719  3400               	retlw	0	;all done for this memory range, return
  2211                           
  2212                           	psect	cstackBANK1
  2213  00D3                     __pcstackBANK1:
  2214  00D3                     ?_sprintf:
  2215  00D3                     sprintf@fmt:	
  2216                           ; 2 bytes @ 0x0
  2217                           
  2218                           
  2219                           ; 2 bytes @ 0x0
  2220  00D3                     	ds	3
  2221  00D6                     ??_sprintf:
  2222                           
  2223                           ; 1 bytes @ 0x3
  2224  00D6                     	ds	1
  2225  00D7                     sprintf@ap:
  2226                           
  2227                           ; 1 bytes @ 0x4
  2228  00D7                     	ds	1
  2229  00D8                     sprintf@s:
  2230                           
  2231                           ; 1 bytes @ 0x5
  2232  00D8                     	ds	1
  2233  00D9                     sprintf@f:
  2234                           
  2235                           ; 10 bytes @ 0x6
  2236  00D9                     	ds	10
  2237  00E3                     ??_main:
  2238                           
  2239                           ; 1 bytes @ 0x10
  2240  00E3                     	ds	2
  2241                           
  2242                           	psect	cstackCOMMON
  2243  0070                     __pcstackCOMMON:
  2244  0070                     ?_PMD_Initialize:
  2245  0070                     ?_PIN_MANAGER_Initialize:	
  2246                           ; 1 bytes @ 0x0
  2247                           
  2248  0070                     ?_OSCILLATOR_Initialize:	
  2249                           ; 1 bytes @ 0x0
  2250                           
  2251  0070                     ?_TMR1_Initialize:	
  2252                           ; 1 bytes @ 0x0
  2253                           
  2254  0070                     ?_EUSART1_Initialize:	
  2255                           ; 1 bytes @ 0x0
  2256                           
  2257  0070                     ?_PIN_MANAGER_IOC:	
  2258                           ; 1 bytes @ 0x0
  2259                           
  2260  0070                     ??_PIN_MANAGER_IOC:	
  2261                           ; 1 bytes @ 0x0
  2262                           
  2263  0070                     ?_TMR1_ISR:	
  2264                           ; 1 bytes @ 0x0
  2265                           
  2266  0070                     ?_IOCCF3_ISR:	
  2267                           ; 1 bytes @ 0x0
  2268                           
  2269  0070                     ??_IOCCF3_ISR:	
  2270                           ; 1 bytes @ 0x0
  2271                           
  2272  0070                     ?_EUSART1_Write:	
  2273                           ; 1 bytes @ 0x0
  2274                           
  2275  0070                     ?_putch:	
  2276                           ; 1 bytes @ 0x0
  2277                           
  2278  0070                     ?_SYSTEM_Initialize:	
  2279                           ; 1 bytes @ 0x0
  2280                           
  2281  0070                     ?_INTERRUPT_InterruptManager:	
  2282                           ; 1 bytes @ 0x0
  2283                           
  2284  0070                     ?_TMR1_StartTimer:	
  2285                           ; 1 bytes @ 0x0
  2286                           
  2287  0070                     ??_TMR1_StartTimer:	
  2288                           ; 1 bytes @ 0x0
  2289                           
  2290  0070                     ?_TMR1_StopTimer:	
  2291                           ; 1 bytes @ 0x0
  2292                           
  2293  0070                     ?_TMR1_WriteTimer:	
  2294                           ; 1 bytes @ 0x0
  2295                           
  2296  0070                     ?_Sendto_Uart:	
  2297                           ; 1 bytes @ 0x0
  2298                           
  2299  0070                     ?_main:	
  2300                           ; 1 bytes @ 0x0
  2301                           
  2302  0070                     ?i1_TMR1_StopTimer:	
  2303                           ; 1 bytes @ 0x0
  2304                           
  2305  0070                     ??i1_TMR1_StopTimer:	
  2306                           ; 1 bytes @ 0x0
  2307                           
  2308  0070                     putch@c:	
  2309                           ; 1 bytes @ 0x0
  2310                           
  2311  0070                     TMR1_WriteTimer@timerVal:	
  2312                           ; 1 bytes @ 0x0
  2313                           
  2314                           
  2315                           ; 2 bytes @ 0x0
  2316  0070                     	ds	2
  2317  0072                     ??_PMD_Initialize:
  2318  0072                     ??_OSCILLATOR_Initialize:	
  2319                           ; 1 bytes @ 0x2
  2320                           
  2321  0072                     ??_TMR1_ISR:	
  2322                           ; 1 bytes @ 0x2
  2323                           
  2324  0072                     ?_TMR1_SetInterruptHandler:	
  2325                           ; 1 bytes @ 0x2
  2326                           
  2327  0072                     ?_IOCCF3_SetInterruptHandler:	
  2328                           ; 1 bytes @ 0x2
  2329                           
  2330  0072                     ??_EUSART1_Write:	
  2331                           ; 1 bytes @ 0x2
  2332                           
  2333  0072                     ?_EUSART1_SetFramingErrorHandler:	
  2334                           ; 1 bytes @ 0x2
  2335                           
  2336  0072                     ?_EUSART1_SetOverrunErrorHandler:	
  2337                           ; 1 bytes @ 0x2
  2338                           
  2339  0072                     ?_EUSART1_SetErrorHandler:	
  2340                           ; 1 bytes @ 0x2
  2341                           
  2342  0072                     ??_putch:	
  2343                           ; 1 bytes @ 0x2
  2344                           
  2345  0072                     ??_INTERRUPT_InterruptManager:	
  2346                           ; 1 bytes @ 0x2
  2347                           
  2348  0072                     ??_TMR1_StopTimer:	
  2349                           ; 1 bytes @ 0x2
  2350                           
  2351  0072                     ??_TMR1_WriteTimer:	
  2352                           ; 1 bytes @ 0x2
  2353                           
  2354  0072                     ??___aodiv:	
  2355                           ; 1 bytes @ 0x2
  2356                           
  2357  0072                     ??___aomod:	
  2358                           ; 1 bytes @ 0x2
  2359                           
  2360  0072                     ?_fputc:	
  2361                           ; 1 bytes @ 0x2
  2362                           
  2363  0072                     ?_strlen:	
  2364                           ; 2 bytes @ 0x2
  2365                           
  2366  0072                     EUSART1_Write@txData:	
  2367                           ; 2 bytes @ 0x2
  2368                           
  2369  0072                     TMR1_SetInterruptHandler@InterruptHandler:	
  2370                           ; 1 bytes @ 0x2
  2371                           
  2372  0072                     IOCCF3_SetInterruptHandler@InterruptHandler:	
  2373                           ; 2 bytes @ 0x2
  2374                           
  2375  0072                     EUSART1_SetFramingErrorHandler@interruptHandler:	
  2376                           ; 2 bytes @ 0x2
  2377                           
  2378  0072                     EUSART1_SetOverrunErrorHandler@interruptHandler:	
  2379                           ; 2 bytes @ 0x2
  2380                           
  2381  0072                     EUSART1_SetErrorHandler@interruptHandler:	
  2382                           ; 2 bytes @ 0x2
  2383                           
  2384  0072                     fputc@c:	
  2385                           ; 2 bytes @ 0x2
  2386                           
  2387                           
  2388                           ; 2 bytes @ 0x2
  2389  0072                     	ds	1
  2390  0073                     ??_Sendto_Uart:
  2391  0073                     ___aomod@counter:	
  2392                           ; 1 bytes @ 0x3
  2393                           
  2394                           
  2395                           ; 1 bytes @ 0x3
  2396  0073                     	ds	1
  2397  0074                     ??_PIN_MANAGER_Initialize:
  2398  0074                     ??_TMR1_Initialize:	
  2399                           ; 1 bytes @ 0x4
  2400                           
  2401  0074                     ??_EUSART1_Initialize:	
  2402                           ; 1 bytes @ 0x4
  2403                           
  2404  0074                     ??_TMR1_SetInterruptHandler:	
  2405                           ; 1 bytes @ 0x4
  2406                           
  2407  0074                     ??_IOCCF3_SetInterruptHandler:	
  2408                           ; 1 bytes @ 0x4
  2409                           
  2410  0074                     ??_EUSART1_SetFramingErrorHandler:	
  2411                           ; 1 bytes @ 0x4
  2412                           
  2413  0074                     ??_EUSART1_SetOverrunErrorHandler:	
  2414                           ; 1 bytes @ 0x4
  2415                           
  2416  0074                     ??_EUSART1_SetErrorHandler:	
  2417                           ; 1 bytes @ 0x4
  2418                           
  2419  0074                     ??_strlen:	
  2420                           ; 1 bytes @ 0x4
  2421                           
  2422  0074                     ??_SYSTEM_Initialize:	
  2423                           ; 1 bytes @ 0x4
  2424                           
  2425  0074                     Sendto_Uart@st_pt:	
  2426                           ; 1 bytes @ 0x4
  2427                           
  2428  0074                     ___aomod@sign:	
  2429                           ; 1 bytes @ 0x4
  2430                           
  2431  0074                     fputc@fp:	
  2432                           ; 1 bytes @ 0x4
  2433                           
  2434                           
  2435                           ; 1 bytes @ 0x4
  2436  0074                     	ds	1
  2437  0075                     ??_fputc:
  2438  0075                     ?_abs:	
  2439                           ; 1 bytes @ 0x5
  2440                           
  2441  0075                     strlen@a:	
  2442                           ; 2 bytes @ 0x5
  2443                           
  2444  0075                     abs@a:	
  2445                           ; 1 bytes @ 0x5
  2446                           
  2447                           
  2448                           ; 2 bytes @ 0x5
  2449  0075                     	ds	1
  2450  0076                     strlen@s:
  2451                           
  2452                           ; 1 bytes @ 0x6
  2453  0076                     	ds	1
  2454  0077                     ??_abs:
  2455                           
  2456                           ; 1 bytes @ 0x7
  2457  0077                     	ds	3
  2458                           
  2459                           	psect	cstackBANK0
  2460  0020                     __pcstackBANK0:
  2461  0020                     ?_fputs:
  2462  0020                     ?___aodiv:	
  2463                           ; 2 bytes @ 0x0
  2464                           
  2465  0020                     ?___aomod:	
  2466                           ; 8 bytes @ 0x0
  2467                           
  2468  0020                     fputs@fp:	
  2469                           ; 8 bytes @ 0x0
  2470                           
  2471  0020                     ___aodiv@divisor:	
  2472                           ; 1 bytes @ 0x0
  2473                           
  2474  0020                     ___aomod@divisor:	
  2475                           ; 8 bytes @ 0x0
  2476                           
  2477                           
  2478                           ; 8 bytes @ 0x0
  2479  0020                     	ds	1
  2480  0021                     ??_fputs:
  2481                           
  2482                           ; 1 bytes @ 0x1
  2483  0021                     	ds	3
  2484  0024                     fputs@c:
  2485                           
  2486                           ; 1 bytes @ 0x4
  2487  0024                     	ds	1
  2488  0025                     fputs@i:
  2489                           
  2490                           ; 2 bytes @ 0x5
  2491  0025                     	ds	2
  2492  0027                     fputs@s:
  2493                           
  2494                           ; 1 bytes @ 0x7
  2495  0027                     	ds	1
  2496  0028                     ?_pad:
  2497  0028                     pad@buf:	
  2498                           ; 2 bytes @ 0x8
  2499                           
  2500  0028                     ___aodiv@dividend:	
  2501                           ; 1 bytes @ 0x8
  2502                           
  2503  0028                     ___aomod@dividend:	
  2504                           ; 8 bytes @ 0x8
  2505                           
  2506                           
  2507                           ; 8 bytes @ 0x8
  2508  0028                     	ds	1
  2509  0029                     pad@p:
  2510                           
  2511                           ; 2 bytes @ 0x9
  2512  0029                     	ds	2
  2513  002B                     ??_pad:
  2514                           
  2515                           ; 1 bytes @ 0xB
  2516  002B                     	ds	1
  2517  002C                     pad@i:
  2518                           
  2519                           ; 2 bytes @ 0xC
  2520  002C                     	ds	2
  2521  002E                     pad@w:
  2522                           
  2523                           ; 2 bytes @ 0xE
  2524  002E                     	ds	2
  2525  0030                     ___aodiv@counter:
  2526  0030                     pad@fp:	
  2527                           ; 1 bytes @ 0x10
  2528                           
  2529                           
  2530                           ; 1 bytes @ 0x10
  2531  0030                     	ds	1
  2532  0031                     ___aodiv@sign:
  2533                           
  2534                           ; 1 bytes @ 0x11
  2535  0031                     	ds	1
  2536  0032                     ___aodiv@quotient:
  2537                           
  2538                           ; 8 bytes @ 0x12
  2539  0032                     	ds	8
  2540  003A                     ?_dtoa:
  2541  003A                     dtoa@d:	
  2542                           ; 2 bytes @ 0x1A
  2543                           
  2544                           
  2545                           ; 8 bytes @ 0x1A
  2546  003A                     	ds	8
  2547  0042                     ??_dtoa:
  2548                           
  2549                           ; 1 bytes @ 0x22
  2550  0042                     	ds	3
  2551  0045                     dtoa@fp:
  2552                           
  2553                           ; 1 bytes @ 0x25
  2554  0045                     	ds	1
  2555  0046                     _dtoa$1094:
  2556                           
  2557                           ; 2 bytes @ 0x26
  2558  0046                     	ds	2
  2559  0048                     dtoa@p:
  2560                           
  2561                           ; 2 bytes @ 0x28
  2562  0048                     	ds	2
  2563  004A                     dtoa@w:
  2564                           
  2565                           ; 2 bytes @ 0x2A
  2566  004A                     	ds	2
  2567  004C                     dtoa@s:
  2568                           
  2569                           ; 2 bytes @ 0x2C
  2570  004C                     	ds	2
  2571  004E                     dtoa@n:
  2572                           
  2573                           ; 8 bytes @ 0x2E
  2574  004E                     	ds	8
  2575  0056                     dtoa@i:
  2576                           
  2577                           ; 2 bytes @ 0x36
  2578  0056                     	ds	2
  2579  0058                     ?_vfpfcnvrt:
  2580  0058                     vfpfcnvrt@fmt:	
  2581                           ; 2 bytes @ 0x38
  2582                           
  2583                           
  2584                           ; 1 bytes @ 0x38
  2585  0058                     	ds	1
  2586  0059                     vfpfcnvrt@ap:
  2587                           
  2588                           ; 1 bytes @ 0x39
  2589  0059                     	ds	1
  2590  005A                     ??_vfpfcnvrt:
  2591                           
  2592                           ; 1 bytes @ 0x3A
  2593  005A                     	ds	5
  2594  005F                     vfpfcnvrt@ll:
  2595                           
  2596                           ; 8 bytes @ 0x3F
  2597  005F                     	ds	8
  2598  0067                     vfpfcnvrt@fp:
  2599                           
  2600                           ; 1 bytes @ 0x47
  2601  0067                     	ds	1
  2602  0068                     ?_vfprintf:
  2603  0068                     vfprintf@fmt:	
  2604                           ; 2 bytes @ 0x48
  2605                           
  2606                           
  2607                           ; 2 bytes @ 0x48
  2608  0068                     	ds	2
  2609  006A                     vfprintf@ap:
  2610                           
  2611                           ; 1 bytes @ 0x4A
  2612  006A                     	ds	1
  2613  006B                     ??_vfprintf:
  2614                           
  2615                           ; 1 bytes @ 0x4B
  2616  006B                     	ds	2
  2617  006D                     vfprintf@fp:
  2618                           
  2619                           ; 1 bytes @ 0x4D
  2620  006D                     	ds	1
  2621  006E                     vfprintf@cfmt:
  2622                           
  2623                           ; 2 bytes @ 0x4E
  2624  006E                     	ds	2
  2625                           
  2626                           	psect	maintext
  2627  0517                     __pmaintext:	
  2628 ;;
  2629 ;;Main: autosize = 0, tempsize = 2, incstack = 0, save=0
  2630 ;;
  2631 ;; *************** function _main *****************
  2632 ;; Defined at:
  2633 ;;		line 17 in file "main.c"
  2634 ;; Parameters:    Size  Location     Type
  2635 ;;		None
  2636 ;; Auto vars:     Size  Location     Type
  2637 ;;		None
  2638 ;; Return value:  Size  Location     Type
  2639 ;;                  1    wreg      void 
  2640 ;; Registers used:
  2641 ;;		wreg, fsr0l, fsr0h, fsr1l, fsr1h, status,2, status,0, pclath, cstack
  2642 ;; Tracked objects:
  2643 ;;		On entry : B3F/0
  2644 ;;		On exit  : 0/0
  2645 ;;		Unchanged: 0/0
  2646 ;; Data sizes:     COMMON   BANK0   BANK1   BANK2   BANK3   BANK4   BANK5   BANK6
  2647 ;;      Params:         0       0       0       0       0       0       0       0
  2648 ;;      Locals:         0       0       0       0       0       0       0       0
  2649 ;;      Temps:          0       0       2       0       0       0       0       0
  2650 ;;      Totals:         0       0       2       0       0       0       0       0
  2651 ;;Total ram usage:        2 bytes
  2652 ;; Hardware stack levels required when called: 12
  2653 ;; This function calls:
  2654 ;;		_EUSART1_Write
  2655 ;;		_SYSTEM_Initialize
  2656 ;;		_Sendto_Uart
  2657 ;;		_TMR1_StopTimer
  2658 ;;		_sprintf
  2659 ;; This function is called by:
  2660 ;;		Startup code after reset
  2661 ;; This function uses a non-reentrant model
  2662 ;;
  2663                           
  2664  0517                     _main:	
  2665                           ;psect for function _main
  2666                           
  2667  0517                     l2099:	
  2668                           ;incstack = 0
  2669                           ; Regs used in _main: [wreg-fsr1h+status,2+status,0+pclath+cstack]
  2670                           
  2671                           
  2672                           ;main.c: 19:     SYSTEM_Initialize();
  2673  0517  3186  26CD  3185   	fcall	_SYSTEM_Initialize
  2674  051A                     l2101:
  2675                           
  2676                           ;main.c: 20:     TMR1_StopTimer();
  2677  051A  3187  2738  3185   	fcall	_TMR1_StopTimer
  2678  051D                     l2103:
  2679                           
  2680                           ;main.c: 22:     (INTCONbits.GIE = 1);
  2681  051D  178B               	bsf	11,7	;volatile
  2682  051E                     l2105:
  2683                           
  2684                           ;main.c: 23:     (INTCONbits.PEIE = 1);
  2685  051E  170B               	bsf	11,6	;volatile
  2686  051F                     l2107:
  2687                           
  2688                           ;main.c: 26:     {;main.c: 27:         if(GotData==1)
  2689  051F  0141               	movlb	1	; select bank1
  2690  0520  0328               	decf	_GotData^(0+128),w
  2691  0521  0429               	iorwf	(_GotData+1)^(0+128),w
  2692  0522  1D03               	btfss	3,2
  2693  0523  2D25               	goto	u1611
  2694  0524  2D26               	goto	u1610
  2695  0525                     u1611:
  2696  0525  2D3D               	goto	l2117
  2697  0526                     u1610:
  2698  0526                     l2109:
  2699                           
  2700                           ;main.c: 28:         {;main.c: 34:             sprintf(sendbuff,"IR= %d",Buff);
  2701  0526  300D               	movlw	low (STR_1| (0+32768))
  2702  0527  00D3               	movwf	sprintf@fmt^(0+128)
  2703  0528  3087               	movlw	high (STR_1| (0+32768))
  2704  0529  00D4               	movwf	(sprintf@fmt^(0+128)+1)
  2705  052A  30BF               	movlw	(low (_Buff| 0))& (0+255)
  2706  052B  00E3               	movwf	??_main^(0+128)
  2707  052C  0863               	movf	??_main^(0+128),w
  2708  052D  00D5               	movwf	(low ((?_sprintf| 0+2)))^(0+128)
  2709  052E  30AB               	movlw	(low (_sendbuff| 0))& (0+255)
  2710  052F  3186  2608  3185   	fcall	_sprintf
  2711  0532                     l2111:
  2712                           
  2713                           ;main.c: 35:             Sendto_Uart(sendbuff);
  2714  0532  30AB               	movlw	(low (_sendbuff| 0))& (0+255)
  2715  0533  3186  26A6  3185   	fcall	_Sendto_Uart
  2716  0536                     l2113:
  2717                           
  2718                           ;main.c: 36:             EUSART1_Write('\n');
  2719  0536  300A               	movlw	10
  2720  0537  3186  26E8  3185   	fcall	_EUSART1_Write
  2721  053A                     l2115:
  2722                           
  2723                           ;main.c: 37:             GotData=0;
  2724  053A  0141               	movlb	1	; select bank1
  2725  053B  01A8               	clrf	_GotData^(0+128)
  2726  053C  01A9               	clrf	(_GotData+1)^(0+128)
  2727  053D                     l2117:
  2728                           
  2729                           ;main.c: 40:         _delay((unsigned long)((100)*(16000000/4000.0)));
  2730  053D  3003               	movlw	3
  2731  053E  0141               	movlb	1	; select bank1
  2732  053F  00E4               	movwf	(??_main^(0+128)+1)
  2733  0540  3008               	movlw	8
  2734  0541  00E3               	movwf	??_main^(0+128)
  2735  0542  3077               	movlw	119
  2736  0543                     u1627:
  2737  0543  0B89               	decfsz	9,f
  2738  0544  2D43               	goto	u1627
  2739  0545  0BE3               	decfsz	??_main^(0+128),f
  2740  0546  2D43               	goto	u1627
  2741  0547  0BE4               	decfsz	(??_main^(0+128)+1),f
  2742  0548  2D43               	goto	u1627
  2743  0549  2D1F               	goto	l2107
  2744  054A  3180  2825         	ljmp	start
  2745  054C                     __end_of_main:
  2746                           
  2747                           	psect	text1
  2748  0608                     __ptext1:	
  2749 ;; *************** function _sprintf *****************
  2750 ;; Defined at:
  2751 ;;		line 9 in file "/opt/microchip/xc8/v2.35/pic/sources/c99/common/nf_sprintf.c"
  2752 ;; Parameters:    Size  Location     Type
  2753 ;;  s               1    wreg     PTR unsigned char 
  2754 ;;		 -> sendbuff(20), 
  2755 ;;  fmt             2    0[BANK1 ] PTR const unsigned char 
  2756 ;;		 -> STR_1(7), 
  2757 ;; Auto vars:     Size  Location     Type
  2758 ;;  s               1    5[BANK1 ] PTR unsigned char 
  2759 ;;		 -> sendbuff(20), 
  2760 ;;  f              10    6[BANK1 ] struct _IO_FILE
  2761 ;;  ret             2    0        int 
  2762 ;;  ap              1    4[BANK1 ] PTR void [1]
  2763 ;;		 -> ?_sprintf(2), 
  2764 ;; Return value:  Size  Location     Type
  2765 ;;                  2    0[BANK1 ] int 
  2766 ;; Registers used:
  2767 ;;		wreg, fsr0l, fsr0h, fsr1l, fsr1h, status,2, status,0, pclath, cstack
  2768 ;; Tracked objects:
  2769 ;;		On entry : 0/0
  2770 ;;		On exit  : 0/0
  2771 ;;		Unchanged: 0/0
  2772 ;; Data sizes:     COMMON   BANK0   BANK1   BANK2   BANK3   BANK4   BANK5   BANK6
  2773 ;;      Params:         0       0       3       0       0       0       0       0
  2774 ;;      Locals:         0       0      12       0       0       0       0       0
  2775 ;;      Temps:          0       0       1       0       0       0       0       0
  2776 ;;      Totals:         0       0      16       0       0       0       0       0
  2777 ;;Total ram usage:       16 bytes
  2778 ;; Hardware stack levels used: 1
  2779 ;; Hardware stack levels required when called: 11
  2780 ;; This function calls:
  2781 ;;		_vfprintf
  2782 ;; This function is called by:
  2783 ;;		_main
  2784 ;; This function uses a non-reentrant model
  2785 ;;
  2786                           
  2787  0608                     _sprintf:	
  2788                           ;psect for function _sprintf
  2789                           
  2790                           
  2791                           ;incstack = 0
  2792                           ; Regs used in _sprintf: [wreg-fsr1h+status,2+status,0+pclath+cstack]
  2793                           ;sprintf@s stored from wreg
  2794  0608  0141               	movlb	1	; select bank1
  2795  0609  00D8               	movwf	sprintf@s^(0+128)
  2796  060A                     l2087:
  2797  060A  30D5               	movlw	(low ((?_sprintf| 0+2)))& (0+255)
  2798  060B  00D6               	movwf	??_sprintf^(0+128)
  2799  060C  0856               	movf	??_sprintf^(0+128),w
  2800  060D  00D7               	movwf	sprintf@ap^(0+128)
  2801  060E  0858               	movf	sprintf@s^(0+128),w
  2802  060F  00D6               	movwf	??_sprintf^(0+128)
  2803  0610  0856               	movf	??_sprintf^(0+128),w
  2804  0611  00D9               	movwf	sprintf@f^(0+128)
  2805  0612                     l2089:
  2806  0612  01DB               	clrf	(sprintf@f^(0+128)+2)
  2807  0613  01DC               	clrf	((sprintf@f+1)^(0+128)+2)
  2808  0614                     l2091:
  2809  0614  01E1               	clrf	(sprintf@f^(0+128)+8)
  2810  0615  01E2               	clrf	((sprintf@f+1)^(0+128)+8)
  2811  0616                     l2093:
  2812  0616  0854               	movf	(sprintf@fmt+1)^(0+128),w
  2813  0617  0140               	movlb	0	; select bank0
  2814  0618  00E9               	movwf	vfprintf@fmt+1
  2815  0619  0141               	movlb	1	; select bank1
  2816  061A  0853               	movf	sprintf@fmt^(0+128),w
  2817  061B  0140               	movlb	0	; select bank0
  2818  061C  00E8               	movwf	vfprintf@fmt
  2819  061D  30D7               	movlw	(low (sprintf@ap| 0))& (0+255)
  2820  061E  0141               	movlb	1	; select bank1
  2821  061F  00D6               	movwf	??_sprintf^(0+128)
  2822  0620  0856               	movf	??_sprintf^(0+128),w
  2823  0621  0140               	movlb	0	; select bank0
  2824  0622  00EA               	movwf	vfprintf@ap
  2825  0623  30D9               	movlw	(low (sprintf@f| 0))& (0+255)
  2826  0624  3185  257E  3186   	fcall	_vfprintf
  2827  0627                     l2095:
  2828  0627  0141               	movlb	1	; select bank1
  2829  0628  085B               	movf	(sprintf@f^(0+128)+2),w
  2830  0629  0758               	addwf	sprintf@s^(0+128),w
  2831  062A  00D6               	movwf	??_sprintf^(0+128)
  2832  062B  0856               	movf	??_sprintf^(0+128),w
  2833  062C  0086               	movwf	6
  2834  062D  0187               	clrf	7
  2835  062E  0181               	clrf	1
  2836  062F                     l877:
  2837  062F  0008               	return
  2838  0630                     __end_of_sprintf:
  2839                           
  2840                           	psect	text2
  2841  057E                     __ptext2:	
  2842 ;; *************** function _vfprintf *****************
  2843 ;; Defined at:
  2844 ;;		line 1390 in file "/opt/microchip/xc8/v2.35/pic/sources/c99/common/doprnt.c"
  2845 ;; Parameters:    Size  Location     Type
  2846 ;;  fp              1    wreg     PTR struct _IO_FILE
  2847 ;;		 -> sprintf@f(10), 
  2848 ;;  fmt             2   72[BANK0 ] PTR const unsigned char 
  2849 ;;		 -> STR_1(7), 
  2850 ;;  ap              1   74[BANK0 ] PTR PTR void 
  2851 ;;		 -> sprintf@ap(1), 
  2852 ;; Auto vars:     Size  Location     Type
  2853 ;;  fp              1   77[BANK0 ] PTR struct _IO_FILE
  2854 ;;		 -> sprintf@f(10), 
  2855 ;;  cfmt            2   78[BANK0 ] PTR unsigned char 
  2856 ;;		 -> STR_1(7), 
  2857 ;; Return value:  Size  Location     Type
  2858 ;;                  2   72[BANK0 ] int 
  2859 ;; Registers used:
  2860 ;;		wreg, fsr0l, fsr0h, fsr1l, fsr1h, status,2, status,0, pclath, cstack
  2861 ;; Tracked objects:
  2862 ;;		On entry : 0/0
  2863 ;;		On exit  : 0/0
  2864 ;;		Unchanged: 0/0
  2865 ;; Data sizes:     COMMON   BANK0   BANK1   BANK2   BANK3   BANK4   BANK5   BANK6
  2866 ;;      Params:         0       3       0       0       0       0       0       0
  2867 ;;      Locals:         0       3       0       0       0       0       0       0
  2868 ;;      Temps:          0       2       0       0       0       0       0       0
  2869 ;;      Totals:         0       8       0       0       0       0       0       0
  2870 ;;Total ram usage:        8 bytes
  2871 ;; Hardware stack levels used: 1
  2872 ;; Hardware stack levels required when called: 10
  2873 ;; This function calls:
  2874 ;;		_vfpfcnvrt
  2875 ;; This function is called by:
  2876 ;;		_sprintf
  2877 ;; This function uses a non-reentrant model
  2878 ;;
  2879                           
  2880  057E                     _vfprintf:	
  2881                           ;psect for function _vfprintf
  2882                           
  2883                           
  2884                           ;incstack = 0
  2885                           ; Regs used in _vfprintf: [wreg-fsr1h+status,2+status,0+pclath+cstack]
  2886                           ;vfprintf@fp stored from wreg
  2887  057E  0140               	movlb	0	; select bank0
  2888  057F  00ED               	movwf	vfprintf@fp
  2889  0580                     l2075:
  2890                           
  2891                           ;/opt/microchip/xc8/v2.35/pic/sources/c99/common/doprnt.c: 1390: int vfprintf(FILE *fp, 
      +                          const char *fmt, va_list ap);/opt/microchip/xc8/v2.35/pic/sources/c99/common/doprnt.c: 1
      +                          391: {;/opt/microchip/xc8/v2.35/pic/sources/c99/common/doprnt.c: 1393:     char *cfmt;;/
      +                          opt/microchip/xc8/v2.35/pic/sources/c99/common/doprnt.c: 1395:     cfmt = (char *)fmt;
  2892  0580  0869               	movf	vfprintf@fmt+1,w
  2893  0581  00EF               	movwf	vfprintf@cfmt+1
  2894  0582  0868               	movf	vfprintf@fmt,w
  2895  0583  00EE               	movwf	vfprintf@cfmt
  2896  0584                     l2077:
  2897                           
  2898                           ;/opt/microchip/xc8/v2.35/pic/sources/c99/common/doprnt.c: 1396:     nout = 0;
  2899  0584  0141               	movlb	1	; select bank1
  2900  0585  01A0               	clrf	_nout^(0+128)
  2901  0586  01A1               	clrf	(_nout+1)^(0+128)
  2902                           
  2903                           ;/opt/microchip/xc8/v2.35/pic/sources/c99/common/doprnt.c: 1397:     while (*cfmt) {
  2904  0587  2D9C               	goto	l2081
  2905  0588                     l2079:
  2906                           
  2907                           ;/opt/microchip/xc8/v2.35/pic/sources/c99/common/doprnt.c: 1398:         nout += vfpfcnv
      +                          rt(fp, &cfmt, ap);
  2908  0588  306E               	movlw	(low (vfprintf@cfmt| 0))& (0+255)
  2909  0589  00EB               	movwf	??_vfprintf
  2910  058A  086B               	movf	??_vfprintf,w
  2911  058B  00D8               	movwf	vfpfcnvrt@fmt
  2912  058C  086A               	movf	vfprintf@ap,w
  2913  058D  00EC               	movwf	??_vfprintf+1
  2914  058E  086C               	movf	??_vfprintf+1,w
  2915  058F  00D9               	movwf	vfpfcnvrt@ap
  2916  0590  086D               	movf	vfprintf@fp,w
  2917  0591  3183  2394  3185   	fcall	_vfpfcnvrt
  2918  0594  0140               	movlb	0	; select bank0
  2919  0595  0858               	movf	?_vfpfcnvrt,w
  2920  0596  0141               	movlb	1	; select bank1
  2921  0597  07A0               	addwf	_nout^(0+128),f
  2922  0598  0140               	movlb	0	; select bank0
  2923  0599  0859               	movf	?_vfpfcnvrt+1,w
  2924  059A  0141               	movlb	1	; select bank1
  2925  059B  3DA1               	addwfc	(_nout+1)^(0+128),f
  2926  059C                     l2081:
  2927                           
  2928                           ;/opt/microchip/xc8/v2.35/pic/sources/c99/common/doprnt.c: 1397:     while (*cfmt) {
  2929  059C  0140               	movlb	0	; select bank0
  2930  059D  086E               	movf	vfprintf@cfmt,w
  2931  059E  0084               	movwf	4
  2932  059F  086F               	movf	vfprintf@cfmt+1,w
  2933  05A0  0085               	movwf	5
  2934  05A1  0012               	moviw fsr0++
  2935  05A2  1D03               	btfss	3,2
  2936  05A3  2DA5               	goto	u1601
  2937  05A4  2DA6               	goto	u1600
  2938  05A5                     u1601:
  2939  05A5  2D88               	goto	l2079
  2940  05A6                     u1600:
  2941  05A6                     l2083:
  2942                           
  2943                           ;/opt/microchip/xc8/v2.35/pic/sources/c99/common/doprnt.c: 1400:     return nout;
  2944  05A6  0141               	movlb	1	; select bank1
  2945  05A7  0821               	movf	(_nout+1)^(0+128),w
  2946  05A8  0140               	movlb	0	; select bank0
  2947  05A9  00E9               	movwf	?_vfprintf+1
  2948  05AA  0141               	movlb	1	; select bank1
  2949  05AB  0820               	movf	_nout^(0+128),w
  2950  05AC  0140               	movlb	0	; select bank0
  2951  05AD  00E8               	movwf	?_vfprintf
  2952  05AE                     l949:
  2953  05AE  0008               	return
  2954  05AF                     __end_of_vfprintf:
  2955                           
  2956                           	psect	text3
  2957  0394                     __ptext3:	
  2958 ;; *************** function _vfpfcnvrt *****************
  2959 ;; Defined at:
  2960 ;;		line 692 in file "/opt/microchip/xc8/v2.35/pic/sources/c99/common/doprnt.c"
  2961 ;; Parameters:    Size  Location     Type
  2962 ;;  fp              1    wreg     PTR struct _IO_FILE
  2963 ;;		 -> sprintf@f(10), 
  2964 ;;  fmt             1   56[BANK0 ] PTR PTR unsigned char 
  2965 ;;		 -> vfprintf@cfmt(2), 
  2966 ;;  ap              1   57[BANK0 ] PTR PTR void 
  2967 ;;		 -> sprintf@ap(1), 
  2968 ;; Auto vars:     Size  Location     Type
  2969 ;;  fp              1   71[BANK0 ] PTR struct _IO_FILE
  2970 ;;		 -> sprintf@f(10), 
  2971 ;;  ll              8   63[BANK0 ] long long 
  2972 ;;  llu             8    0        unsigned long long 
  2973 ;;  f               4    0        unsigned long long 
  2974 ;;  ct              3    0        unsigned char [3]
  2975 ;;  vp              2    0        PTR void 
  2976 ;;  i               2    0        int 
  2977 ;;  done            2    0        int 
  2978 ;;  cp              2    0        PTR unsigned char 
  2979 ;;  c               1    0        unsigned char 
  2980 ;; Return value:  Size  Location     Type
  2981 ;;                  2   56[BANK0 ] int 
  2982 ;; Registers used:
  2983 ;;		wreg, fsr0l, fsr0h, fsr1l, fsr1h, status,2, status,0, pclath, cstack
  2984 ;; Tracked objects:
  2985 ;;		On entry : 0/0
  2986 ;;		On exit  : 0/0
  2987 ;;		Unchanged: 0/0
  2988 ;; Data sizes:     COMMON   BANK0   BANK1   BANK2   BANK3   BANK4   BANK5   BANK6
  2989 ;;      Params:         0       2       0       0       0       0       0       0
  2990 ;;      Locals:         0       9       0       0       0       0       0       0
  2991 ;;      Temps:          0       5       0       0       0       0       0       0
  2992 ;;      Totals:         0      16       0       0       0       0       0       0
  2993 ;;Total ram usage:       16 bytes
  2994 ;; Hardware stack levels used: 1
  2995 ;; Hardware stack levels required when called: 9
  2996 ;; This function calls:
  2997 ;;		_dtoa
  2998 ;;		_fputc
  2999 ;; This function is called by:
  3000 ;;		_vfprintf
  3001 ;; This function uses a non-reentrant model
  3002 ;;
  3003                           
  3004  0394                     _vfpfcnvrt:	
  3005                           ;psect for function _vfpfcnvrt
  3006                           
  3007                           
  3008                           ;incstack = 0
  3009                           ; Regs used in _vfpfcnvrt: [wreg-fsr1h+status,2+status,0+pclath+cstack]
  3010                           ;vfpfcnvrt@fp stored from wreg
  3011  0394  0140               	movlb	0	; select bank0
  3012  0395  00E7               	movwf	vfpfcnvrt@fp
  3013  0396                     l2031:
  3014                           
  3015                           ;/opt/microchip/xc8/v2.35/pic/sources/c99/common/doprnt.c: 692: static int vfpfcnvrt(FIL
      +                          E *fp, char *fmt[], va_list ap);/opt/microchip/xc8/v2.35/pic/sources/c99/common/doprnt.c
      +                          : 693: {;/opt/microchip/xc8/v2.35/pic/sources/c99/common/doprnt.c: 694:     char c, *cp,
      +                           ct[3];;/opt/microchip/xc8/v2.35/pic/sources/c99/common/doprnt.c: 695:     int done, i;;
      +                          /opt/microchip/xc8/v2.35/pic/sources/c99/common/doprnt.c: 696:     long long ll;;/opt/mi
      +                          crochip/xc8/v2.35/pic/sources/c99/common/doprnt.c: 697:     unsigned long long llu;
  3016  0396  0858               	movf	vfpfcnvrt@fmt,w
  3017  0397  0086               	movwf	6
  3018  0398  0187               	clrf	7
  3019  0399  3F40               	moviw [0]fsr1
  3020  039A  00DA               	movwf	??_vfpfcnvrt
  3021  039B  3F41               	moviw [1]fsr1
  3022  039C  00DB               	movwf	??_vfpfcnvrt+1
  3023  039D  085A               	movf	??_vfpfcnvrt,w
  3024  039E  0084               	movwf	4
  3025  039F  085B               	movf	??_vfpfcnvrt+1,w
  3026  03A0  0085               	movwf	5
  3027  03A1  0012               	moviw fsr0++
  3028  03A2  3A25               	xorlw	37
  3029  03A3  1D03               	btfss	3,2
  3030  03A4  2BA6               	goto	u1561
  3031  03A5  2BA7               	goto	u1560
  3032  03A6                     u1561:
  3033  03A6  2C4B               	goto	l2067
  3034  03A7                     u1560:
  3035  03A7                     l2033:
  3036                           
  3037                           ;/opt/microchip/xc8/v2.35/pic/sources/c99/common/doprnt.c: 703:         ++*fmt;
  3038  03A7  0858               	movf	vfpfcnvrt@fmt,w
  3039  03A8  0086               	movwf	6
  3040  03A9  0187               	clrf	7
  3041  03AA  3001               	movlw	1
  3042  03AB  0781               	addwf	1,f
  3043  03AC  3141               	addfsr 1,1
  3044  03AD  1803               	skipnc
  3045  03AE  0A81               	incf	1,f
  3046  03AF                     l2035:
  3047                           
  3048                           ;/opt/microchip/xc8/v2.35/pic/sources/c99/common/doprnt.c: 705:         flags = width = 
      +                          0;
  3049  03AF  0141               	movlb	1	; select bank1
  3050  03B0  01A2               	clrf	_width^(0+128)
  3051  03B1  01A3               	clrf	(_width+1)^(0+128)
  3052  03B2  01FA               	clrf	_flags
  3053  03B3  01FB               	clrf	_flags+1
  3054  03B4                     l2037:
  3055                           
  3056                           ;/opt/microchip/xc8/v2.35/pic/sources/c99/common/doprnt.c: 706:         prec = -1;
  3057  03B4  30FF               	movlw	255
  3058  03B5  00A4               	movwf	_prec^(0+128)
  3059  03B6  30FF               	movlw	255
  3060  03B7  00A5               	movwf	(_prec^(0+128)+1)
  3061  03B8                     l2039:
  3062                           
  3063                           ;/opt/microchip/xc8/v2.35/pic/sources/c99/common/doprnt.c: 847:         if ((*fmt[0] == 
      +                          'd') || (*fmt[0] == 'i')) {
  3064  03B8  0140               	movlb	0	; select bank0
  3065  03B9  0858               	movf	vfpfcnvrt@fmt,w
  3066  03BA  0086               	movwf	6
  3067  03BB  0187               	clrf	7
  3068  03BC  3F40               	moviw [0]fsr1
  3069  03BD  00DA               	movwf	??_vfpfcnvrt
  3070  03BE  3F41               	moviw [1]fsr1
  3071  03BF  00DB               	movwf	??_vfpfcnvrt+1
  3072  03C0  085A               	movf	??_vfpfcnvrt,w
  3073  03C1  0084               	movwf	4
  3074  03C2  085B               	movf	??_vfpfcnvrt+1,w
  3075  03C3  0085               	movwf	5
  3076  03C4  0012               	moviw fsr0++
  3077  03C5  3A64               	xorlw	100
  3078  03C6  1903               	btfsc	3,2
  3079  03C7  2BC9               	goto	u1571
  3080  03C8  2BCA               	goto	u1570
  3081  03C9                     u1571:
  3082  03C9  2BDB               	goto	l2043
  3083  03CA                     u1570:
  3084  03CA                     l2041:
  3085  03CA  0858               	movf	vfpfcnvrt@fmt,w
  3086  03CB  0086               	movwf	6
  3087  03CC  0187               	clrf	7
  3088  03CD  3F40               	moviw [0]fsr1
  3089  03CE  00DA               	movwf	??_vfpfcnvrt
  3090  03CF  3F41               	moviw [1]fsr1
  3091  03D0  00DB               	movwf	??_vfpfcnvrt+1
  3092  03D1  085A               	movf	??_vfpfcnvrt,w
  3093  03D2  0084               	movwf	4
  3094  03D3  085B               	movf	??_vfpfcnvrt+1,w
  3095  03D4  0085               	movwf	5
  3096  03D5  0012               	moviw fsr0++
  3097  03D6  3A69               	xorlw	105
  3098  03D7  1D03               	btfss	3,2
  3099  03D8  2BDA               	goto	u1581
  3100  03D9  2BDB               	goto	u1580
  3101  03DA                     u1581:
  3102  03DA  2C16               	goto	l2051
  3103  03DB                     u1580:
  3104  03DB                     l2043:
  3105                           
  3106                           ;/opt/microchip/xc8/v2.35/pic/sources/c99/common/doprnt.c: 849:             ++*fmt;
  3107  03DB  0858               	movf	vfpfcnvrt@fmt,w
  3108  03DC  0086               	movwf	6
  3109  03DD  0187               	clrf	7
  3110  03DE  3001               	movlw	1
  3111  03DF  0781               	addwf	1,f
  3112  03E0  3141               	addfsr 1,1
  3113  03E1  1803               	skipnc
  3114  03E2  0A81               	incf	1,f
  3115  03E3                     l2045:
  3116                           
  3117                           ;/opt/microchip/xc8/v2.35/pic/sources/c99/common/doprnt.c: 850:             ll = (long l
      +                          ong)(*(int *)__va_arg(*(int **)ap, (int)0));
  3118  03E3  0859               	movf	vfpfcnvrt@ap,w
  3119  03E4  0086               	movwf	6
  3120  03E5  0187               	clrf	7
  3121  03E6  0801               	movf	1,w
  3122  03E7  0084               	movwf	4
  3123  03E8  0185               	clrf	5
  3124  03E9  3002               	movlw	2
  3125  03EA  0781               	addwf	1,f
  3126  03EB  3F00               	moviw [0]fsr0
  3127  03EC  00DA               	movwf	??_vfpfcnvrt
  3128  03ED  3F01               	moviw [1]fsr0
  3129  03EE  00DB               	movwf	??_vfpfcnvrt+1
  3130  03EF  085A               	movf	??_vfpfcnvrt,w
  3131  03F0  00DF               	movwf	vfpfcnvrt@ll
  3132  03F1  085B               	movf	??_vfpfcnvrt+1,w
  3133  03F2  00E0               	movwf	vfpfcnvrt@ll+1
  3134  03F3  0D89               	rlf	9,f
  3135  03F4  3B89               	subwfb	9,f
  3136  03F5  0989               	comf	9,f
  3137  03F6  00E1               	movwf	vfpfcnvrt@ll+2
  3138  03F7  00E2               	movwf	vfpfcnvrt@ll+3
  3139  03F8  00E3               	movwf	vfpfcnvrt@ll+4
  3140  03F9  00E4               	movwf	vfpfcnvrt@ll+5
  3141  03FA  00E5               	movwf	vfpfcnvrt@ll+6
  3142  03FB  00E6               	movwf	vfpfcnvrt@ll+7
  3143  03FC                     l2047:
  3144                           
  3145                           ;/opt/microchip/xc8/v2.35/pic/sources/c99/common/doprnt.c: 852:             return dtoa(
      +                          fp, ll);
  3146  03FC  085F               	movf	vfpfcnvrt@ll,w
  3147  03FD  00BA               	movwf	dtoa@d
  3148  03FE  0860               	movf	vfpfcnvrt@ll+1,w
  3149  03FF  00BB               	movwf	dtoa@d+1
  3150  0400  0861               	movf	vfpfcnvrt@ll+2,w
  3151  0401  00BC               	movwf	dtoa@d+2
  3152  0402  0862               	movf	vfpfcnvrt@ll+3,w
  3153  0403  00BD               	movwf	dtoa@d+3
  3154  0404  0863               	movf	vfpfcnvrt@ll+4,w
  3155  0405  00BE               	movwf	dtoa@d+4
  3156  0406  0864               	movf	vfpfcnvrt@ll+5,w
  3157  0407  00BF               	movwf	dtoa@d+5
  3158  0408  0865               	movf	vfpfcnvrt@ll+6,w
  3159  0409  00C0               	movwf	dtoa@d+6
  3160  040A  0866               	movf	vfpfcnvrt@ll+7,w
  3161  040B  00C1               	movwf	dtoa@d+7
  3162  040C  0867               	movf	vfpfcnvrt@fp,w
  3163  040D  3180  203D  3183   	fcall	_dtoa
  3164  0410  0140               	movlb	0	; select bank0
  3165  0411  083B               	movf	?_dtoa+1,w
  3166  0412  00D9               	movwf	?_vfpfcnvrt+1
  3167  0413  083A               	movf	?_dtoa,w
  3168  0414  00D8               	movwf	?_vfpfcnvrt
  3169  0415  2C6E               	goto	l942
  3170  0416                     l2051:
  3171                           
  3172                           ;/opt/microchip/xc8/v2.35/pic/sources/c99/common/doprnt.c: 1372:         if ((*fmt)[0] =
      +                          = '%') {
  3173  0416  0858               	movf	vfpfcnvrt@fmt,w
  3174  0417  0086               	movwf	6
  3175  0418  0187               	clrf	7
  3176  0419  3F40               	moviw [0]fsr1
  3177  041A  00DA               	movwf	??_vfpfcnvrt
  3178  041B  3F41               	moviw [1]fsr1
  3179  041C  00DB               	movwf	??_vfpfcnvrt+1
  3180  041D  085A               	movf	??_vfpfcnvrt,w
  3181  041E  0084               	movwf	4
  3182  041F  085B               	movf	??_vfpfcnvrt+1,w
  3183  0420  0085               	movwf	5
  3184  0421  0012               	moviw fsr0++
  3185  0422  3A25               	xorlw	37
  3186  0423  1D03               	btfss	3,2
  3187  0424  2C26               	goto	u1591
  3188  0425  2C27               	goto	u1590
  3189  0426                     u1591:
  3190  0426  2C40               	goto	l2061
  3191  0427                     u1590:
  3192  0427                     l2053:
  3193                           
  3194                           ;/opt/microchip/xc8/v2.35/pic/sources/c99/common/doprnt.c: 1373:             ++*fmt;
  3195  0427  0858               	movf	vfpfcnvrt@fmt,w
  3196  0428  0086               	movwf	6
  3197  0429  0187               	clrf	7
  3198  042A  3001               	movlw	1
  3199  042B  0781               	addwf	1,f
  3200  042C  3141               	addfsr 1,1
  3201  042D  1803               	skipnc
  3202  042E  0A81               	incf	1,f
  3203  042F                     l2055:
  3204                           
  3205                           ;/opt/microchip/xc8/v2.35/pic/sources/c99/common/doprnt.c: 1374:             fputc((int)
      +                          '%', fp);
  3206  042F  3025               	movlw	37
  3207  0430  00F2               	movwf	fputc@c
  3208  0431  3000               	movlw	0
  3209  0432  00F3               	movwf	fputc@c+1
  3210  0433  0867               	movf	vfpfcnvrt@fp,w
  3211  0434  00DA               	movwf	??_vfpfcnvrt
  3212  0435  085A               	movf	??_vfpfcnvrt,w
  3213  0436  00F4               	movwf	fputc@fp
  3214  0437  3184  24C5  3183   	fcall	_fputc
  3215  043A                     l2057:
  3216                           
  3217                           ;/opt/microchip/xc8/v2.35/pic/sources/c99/common/doprnt.c: 1375:             return 1;
  3218  043A  3001               	movlw	1
  3219  043B  0140               	movlb	0	; select bank0
  3220  043C  00D8               	movwf	?_vfpfcnvrt
  3221  043D  3000               	movlw	0
  3222  043E  00D9               	movwf	?_vfpfcnvrt+1
  3223  043F  2C6E               	goto	l942
  3224  0440                     l2061:
  3225                           
  3226                           ;/opt/microchip/xc8/v2.35/pic/sources/c99/common/doprnt.c: 1379:         ++*fmt;
  3227  0440  0858               	movf	vfpfcnvrt@fmt,w
  3228  0441  0086               	movwf	6
  3229  0442  0187               	clrf	7
  3230  0443  3001               	movlw	1
  3231  0444  0781               	addwf	1,f
  3232  0445  3141               	addfsr 1,1
  3233  0446  1803               	skipnc
  3234  0447  0A81               	incf	1,f
  3235  0448                     l2063:
  3236                           
  3237                           ;/opt/microchip/xc8/v2.35/pic/sources/c99/common/doprnt.c: 1380:         return 0;
  3238  0448  01D8               	clrf	?_vfpfcnvrt
  3239  0449  01D9               	clrf	?_vfpfcnvrt+1
  3240  044A  2C6E               	goto	l942
  3241  044B                     l2067:
  3242                           
  3243                           ;/opt/microchip/xc8/v2.35/pic/sources/c99/common/doprnt.c: 1384:     fputc((int)(*fmt)[0
      +                          ], fp);
  3244  044B  0858               	movf	vfpfcnvrt@fmt,w
  3245  044C  0086               	movwf	6
  3246  044D  0187               	clrf	7
  3247  044E  3F40               	moviw [0]fsr1
  3248  044F  00DA               	movwf	??_vfpfcnvrt
  3249  0450  3F41               	moviw [1]fsr1
  3250  0451  00DB               	movwf	??_vfpfcnvrt+1
  3251  0452  085A               	movf	??_vfpfcnvrt,w
  3252  0453  0084               	movwf	4
  3253  0454  085B               	movf	??_vfpfcnvrt+1,w
  3254  0455  0085               	movwf	5
  3255  0456  0800               	movf	0,w	;code access
  3256  0457  00DC               	movwf	??_vfpfcnvrt+2
  3257  0458  01DD               	clrf	??_vfpfcnvrt+3
  3258  0459  085C               	movf	??_vfpfcnvrt+2,w
  3259  045A  00F2               	movwf	fputc@c
  3260  045B  085D               	movf	??_vfpfcnvrt+3,w
  3261  045C  00F3               	movwf	fputc@c+1
  3262  045D  0867               	movf	vfpfcnvrt@fp,w
  3263  045E  00DE               	movwf	??_vfpfcnvrt+4
  3264  045F  085E               	movf	??_vfpfcnvrt+4,w
  3265  0460  00F4               	movwf	fputc@fp
  3266  0461  3184  24C5  3183   	fcall	_fputc
  3267  0464                     l2069:
  3268                           
  3269                           ;/opt/microchip/xc8/v2.35/pic/sources/c99/common/doprnt.c: 1385:     ++*fmt;
  3270  0464  0140               	movlb	0	; select bank0
  3271  0465  0858               	movf	vfpfcnvrt@fmt,w
  3272  0466  0086               	movwf	6
  3273  0467  0187               	clrf	7
  3274  0468  3001               	movlw	1
  3275  0469  0781               	addwf	1,f
  3276  046A  3141               	addfsr 1,1
  3277  046B  1803               	skipnc
  3278  046C  0A81               	incf	1,f
  3279  046D  2C3A               	goto	l2057
  3280  046E                     l942:
  3281  046E  0008               	return
  3282  046F                     __end_of_vfpfcnvrt:
  3283                           
  3284                           	psect	text4
  3285  003D                     __ptext4:	
  3286 ;; *************** function _dtoa *****************
  3287 ;; Defined at:
  3288 ;;		line 287 in file "/opt/microchip/xc8/v2.35/pic/sources/c99/common/doprnt.c"
  3289 ;; Parameters:    Size  Location     Type
  3290 ;;  fp              1    wreg     PTR struct _IO_FILE
  3291 ;;		 -> sprintf@f(10), 
  3292 ;;  d               8   26[BANK0 ] long long 
  3293 ;; Auto vars:     Size  Location     Type
  3294 ;;  fp              1   37[BANK0 ] PTR struct _IO_FILE
  3295 ;;		 -> sprintf@f(10), 
  3296 ;;  n               8   46[BANK0 ] long long 
  3297 ;;  i               2   54[BANK0 ] int 
  3298 ;;  s               2   44[BANK0 ] int 
  3299 ;;  w               2   42[BANK0 ] int 
  3300 ;;  p               2   40[BANK0 ] int 
  3301 ;; Return value:  Size  Location     Type
  3302 ;;                  2   26[BANK0 ] int 
  3303 ;; Registers used:
  3304 ;;		wreg, fsr0l, fsr0h, fsr1l, fsr1h, status,2, status,0, pclath, cstack
  3305 ;; Tracked objects:
  3306 ;;		On entry : 0/0
  3307 ;;		On exit  : 0/0
  3308 ;;		Unchanged: 0/0
  3309 ;; Data sizes:     COMMON   BANK0   BANK1   BANK2   BANK3   BANK4   BANK5   BANK6
  3310 ;;      Params:         0       8       0       0       0       0       0       0
  3311 ;;      Locals:         0      19       0       0       0       0       0       0
  3312 ;;      Temps:          0       3       0       0       0       0       0       0
  3313 ;;      Totals:         0      30       0       0       0       0       0       0
  3314 ;;Total ram usage:       30 bytes
  3315 ;; Hardware stack levels used: 1
  3316 ;; Hardware stack levels required when called: 8
  3317 ;; This function calls:
  3318 ;;		___aodiv
  3319 ;;		___aomod
  3320 ;;		_abs
  3321 ;;		_pad
  3322 ;; This function is called by:
  3323 ;;		_vfpfcnvrt
  3324 ;; This function uses a non-reentrant model
  3325 ;;
  3326                           
  3327  003D                     _dtoa:	
  3328                           ;psect for function _dtoa
  3329                           
  3330                           
  3331                           ;incstack = 0
  3332                           ; Regs used in _dtoa: [wreg-fsr1h+status,2+status,0+pclath+cstack]
  3333                           ;dtoa@fp stored from wreg
  3334  003D  0140               	movlb	0	; select bank0
  3335  003E  00C5               	movwf	dtoa@fp
  3336  003F                     l1973:
  3337                           
  3338                           ;/opt/microchip/xc8/v2.35/pic/sources/c99/common/doprnt.c: 287: static int dtoa(FILE *fp
      +                          , long long d);/opt/microchip/xc8/v2.35/pic/sources/c99/common/doprnt.c: 288: {;/opt/mic
      +                          rochip/xc8/v2.35/pic/sources/c99/common/doprnt.c: 289:     int i, p, s, w;;/opt/microchi
      +                          p/xc8/v2.35/pic/sources/c99/common/doprnt.c: 290:     long long n;;/opt/microchip/xc8/v2
      +                          .35/pic/sources/c99/common/doprnt.c: 293:     n = d;
  3339  003F  083A               	movf	dtoa@d,w
  3340  0040  00CE               	movwf	dtoa@n
  3341  0041  083B               	movf	dtoa@d+1,w
  3342  0042  00CF               	movwf	dtoa@n+1
  3343  0043  083C               	movf	dtoa@d+2,w
  3344  0044  00D0               	movwf	dtoa@n+2
  3345  0045  083D               	movf	dtoa@d+3,w
  3346  0046  00D1               	movwf	dtoa@n+3
  3347  0047  083E               	movf	dtoa@d+4,w
  3348  0048  00D2               	movwf	dtoa@n+4
  3349  0049  083F               	movf	dtoa@d+5,w
  3350  004A  00D3               	movwf	dtoa@n+5
  3351  004B  0840               	movf	dtoa@d+6,w
  3352  004C  00D4               	movwf	dtoa@n+6
  3353  004D  0841               	movf	dtoa@d+7,w
  3354  004E  00D5               	movwf	dtoa@n+7
  3355  004F                     l1975:
  3356                           
  3357                           ;/opt/microchip/xc8/v2.35/pic/sources/c99/common/doprnt.c: 294:     s = n < 0 ? 1 : 0;
  3358  004F  304E               	movlw	low dtoa@n
  3359  0050  0086               	movwf	6
  3360  0051  3000               	movlw	high dtoa@n
  3361  0052  0087               	movwf	7
  3362  0053  3F47               	moviw [7]fsr1
  3363  0054  00C2               	movwf	??_dtoa
  3364  0055  1BC2               	btfsc	??_dtoa,7
  3365  0056  2858               	goto	u1401
  3366  0057  285A               	goto	u1400
  3367  0058                     u1401:
  3368  0058  3001               	movlw	1
  3369  0059  285B               	goto	u1410
  3370  005A                     u1400:
  3371  005A  3000               	movlw	0
  3372  005B                     u1410:
  3373  005B  0140               	movlb	0	; select bank0
  3374  005C  00C3               	movwf	??_dtoa+1
  3375  005D  01C4               	clrf	??_dtoa+2
  3376  005E  0843               	movf	??_dtoa+1,w
  3377  005F  00CC               	movwf	dtoa@s
  3378  0060  0844               	movf	??_dtoa+2,w
  3379  0061  00CD               	movwf	dtoa@s+1
  3380  0062                     l1977:
  3381                           
  3382                           ;/opt/microchip/xc8/v2.35/pic/sources/c99/common/doprnt.c: 295:     if (s) {
  3383  0062  084C               	movf	dtoa@s,w
  3384  0063  044D               	iorwf	dtoa@s+1,w
  3385  0064  1903               	btfsc	3,2
  3386  0065  2867               	goto	u1421
  3387  0066  2868               	goto	u1420
  3388  0067                     u1421:
  3389  0067  2886               	goto	l912
  3390  0068                     u1420:
  3391  0068                     l1979:
  3392                           
  3393                           ;/opt/microchip/xc8/v2.35/pic/sources/c99/common/doprnt.c: 296:         n = -n;
  3394  0068  09CE               	comf	dtoa@n,f
  3395  0069  09CF               	comf	dtoa@n+1,f
  3396  006A  09D0               	comf	dtoa@n+2,f
  3397  006B  09D1               	comf	dtoa@n+3,f
  3398  006C  09D2               	comf	dtoa@n+4,f
  3399  006D  09D3               	comf	dtoa@n+5,f
  3400  006E  09D4               	comf	dtoa@n+6,f
  3401  006F  09D5               	comf	dtoa@n+7,f
  3402  0070  0ACE               	incf	dtoa@n,f
  3403  0071  1D03               	skipz
  3404  0072  2886               	goto	u143lld
  3405  0073  0ACF               	incf	dtoa@n+1,f
  3406  0074  1D03               	skipz
  3407  0075  2886               	goto	u143lld
  3408  0076  0AD0               	incf	dtoa@n+2,f
  3409  0077  1D03               	skipz
  3410  0078  2886               	goto	u143lld
  3411  0079  0AD1               	incf	dtoa@n+3,f
  3412  007A  1D03               	skipz
  3413  007B  2886               	goto	u143lld
  3414  007C  0AD2               	incf	dtoa@n+4,f
  3415  007D  1D03               	skipz
  3416  007E  2886               	goto	u143lld
  3417  007F  0AD3               	incf	dtoa@n+5,f
  3418  0080  1D03               	skipz
  3419  0081  2886               	goto	u143lld
  3420  0082  0AD4               	incf	dtoa@n+6,f
  3421  0083  1D03               	skipz
  3422  0084  2886               	goto	u143lld
  3423  0085  0AD5               	incf	dtoa@n+7,f
  3424  0086                     u143lld:
  3425  0086                     l912:	
  3426                           ;/opt/microchip/xc8/v2.35/pic/sources/c99/common/doprnt.c: 297:     }
  3427                           
  3428                           
  3429                           ;/opt/microchip/xc8/v2.35/pic/sources/c99/common/doprnt.c: 300:     if (!(prec < 0)) {
  3430  0086  0141               	movlb	1	; select bank1
  3431  0087  1BA5               	btfsc	(_prec+1)^(0+128),7
  3432  0088  288A               	goto	u1441
  3433  0089  288B               	goto	u1440
  3434  008A                     u1441:
  3435  008A  288F               	goto	l913
  3436  008B                     u1440:
  3437  008B                     l1981:
  3438                           
  3439                           ;/opt/microchip/xc8/v2.35/pic/sources/c99/common/doprnt.c: 301:         flags &= ~(1 << 
      +                          1);
  3440  008B  30FD               	movlw	253
  3441  008C  05FA               	andwf	_flags,f
  3442  008D  30FF               	movlw	255
  3443  008E  05FB               	andwf	_flags+1,f
  3444  008F                     l913:	
  3445                           ;/opt/microchip/xc8/v2.35/pic/sources/c99/common/doprnt.c: 302:     }
  3446                           
  3447                           
  3448                           ;/opt/microchip/xc8/v2.35/pic/sources/c99/common/doprnt.c: 303:     p = (0 < prec) ? pre
      +                          c : 1;
  3449  008F  0825               	movf	(_prec+1)^(0+128),w
  3450  0090  3A80               	xorlw	128
  3451  0091  0140               	movlb	0	; select bank0
  3452  0092  00C2               	movwf	??_dtoa
  3453  0093  3080               	movlw	128
  3454  0094  0242               	subwf	??_dtoa,w
  3455  0095  1D03               	skipz
  3456  0096  289A               	goto	u1455
  3457  0097  3001               	movlw	1
  3458  0098  0141               	movlb	1	; select bank1
  3459  0099  0224               	subwf	_prec^(0+128),w
  3460  009A                     u1455:
  3461  009A  1803               	skipnc
  3462  009B  289D               	goto	u1451
  3463  009C  289E               	goto	u1450
  3464  009D                     u1451:
  3465  009D  28A4               	goto	l1985
  3466  009E                     u1450:
  3467  009E                     l1983:
  3468  009E  3001               	movlw	1
  3469  009F  0140               	movlb	0	; select bank0
  3470  00A0  00C8               	movwf	dtoa@p
  3471  00A1  3000               	movlw	0
  3472  00A2  00C9               	movwf	dtoa@p+1
  3473  00A3  28AC               	goto	l917
  3474  00A4                     l1985:
  3475  00A4  0141               	movlb	1	; select bank1
  3476  00A5  0825               	movf	(_prec+1)^(0+128),w
  3477  00A6  0140               	movlb	0	; select bank0
  3478  00A7  00C9               	movwf	dtoa@p+1
  3479  00A8  0141               	movlb	1	; select bank1
  3480  00A9  0824               	movf	_prec^(0+128),w
  3481  00AA  0140               	movlb	0	; select bank0
  3482  00AB  00C8               	movwf	dtoa@p
  3483  00AC                     l917:
  3484                           
  3485                           ;/opt/microchip/xc8/v2.35/pic/sources/c99/common/doprnt.c: 304:     w = width;
  3486  00AC  0141               	movlb	1	; select bank1
  3487  00AD  0823               	movf	(_width+1)^(0+128),w
  3488  00AE  0140               	movlb	0	; select bank0
  3489  00AF  00CB               	movwf	dtoa@w+1
  3490  00B0  0141               	movlb	1	; select bank1
  3491  00B1  0822               	movf	_width^(0+128),w
  3492  00B2  0140               	movlb	0	; select bank0
  3493  00B3  00CA               	movwf	dtoa@w
  3494  00B4                     l1987:
  3495                           
  3496                           ;/opt/microchip/xc8/v2.35/pic/sources/c99/common/doprnt.c: 305:     if (s || (flags & (1
      +                           << 2))) {
  3497  00B4  084C               	movf	dtoa@s,w
  3498  00B5  044D               	iorwf	dtoa@s+1,w
  3499  00B6  1D03               	btfss	3,2
  3500  00B7  28B9               	goto	u1461
  3501  00B8  28BA               	goto	u1460
  3502  00B9                     u1461:
  3503  00B9  28BE               	goto	l1991
  3504  00BA                     u1460:
  3505  00BA                     l1989:
  3506  00BA  1D7A               	btfss	_flags,2
  3507  00BB  28BD               	goto	u1471
  3508  00BC  28BE               	goto	u1470
  3509  00BD                     u1471:
  3510  00BD  28C2               	goto	l918
  3511  00BE                     u1470:
  3512  00BE                     l1991:
  3513                           
  3514                           ;/opt/microchip/xc8/v2.35/pic/sources/c99/common/doprnt.c: 306:         --w;
  3515  00BE  30FF               	movlw	255
  3516  00BF  07CA               	addwf	dtoa@w,f
  3517  00C0  30FF               	movlw	255
  3518  00C1  3DCB               	addwfc	dtoa@w+1,f
  3519  00C2                     l918:	
  3520                           ;/opt/microchip/xc8/v2.35/pic/sources/c99/common/doprnt.c: 307:     }
  3521                           
  3522                           
  3523                           ;/opt/microchip/xc8/v2.35/pic/sources/c99/common/doprnt.c: 310:     i = sizeof(dbuf) - 1
      +                          ;
  3524  00C2  301F               	movlw	31
  3525  00C3  00D6               	movwf	dtoa@i
  3526  00C4  3000               	movlw	0
  3527  00C5  00D7               	movwf	dtoa@i+1
  3528  00C6                     l1993:
  3529                           
  3530                           ;/opt/microchip/xc8/v2.35/pic/sources/c99/common/doprnt.c: 311:     dbuf[i] = '\0';
  3531  00C6  0142               	movlb	2	; select bank2
  3532  00C7  01BF               	clrf	(_dbuf^(0+256)+31)
  3533                           
  3534                           ;/opt/microchip/xc8/v2.35/pic/sources/c99/common/doprnt.c: 312:     while (!(i < 1) && (
      +                          n || (0 < p) || ((0 < w) && (flags & (1 << 1))))) {
  3535  00C8  2932               	goto	l921
  3536  00C9                     l1995:
  3537                           
  3538                           ;/opt/microchip/xc8/v2.35/pic/sources/c99/common/doprnt.c: 313:         --i;
  3539  00C9  30FF               	movlw	255
  3540  00CA  0140               	movlb	0	; select bank0
  3541  00CB  07D6               	addwf	dtoa@i,f
  3542  00CC  30FF               	movlw	255
  3543  00CD  3DD7               	addwfc	dtoa@i+1,f
  3544  00CE                     l1997:
  3545                           
  3546                           ;/opt/microchip/xc8/v2.35/pic/sources/c99/common/doprnt.c: 314:         dbuf[i] = (char)
      +                          ((int)'0' + abs(n % 10));
  3547  00CE  300A               	movlw	10
  3548  00CF  00A0               	movwf	___aomod@divisor
  3549  00D0  01A1               	clrf	___aomod@divisor+1
  3550  00D1  01A2               	clrf	___aomod@divisor+2
  3551  00D2  01A3               	clrf	___aomod@divisor+3
  3552  00D3  01A4               	clrf	___aomod@divisor+4
  3553  00D4  01A5               	clrf	___aomod@divisor+5
  3554  00D5  01A6               	clrf	___aomod@divisor+6
  3555  00D6  01A7               	clrf	___aomod@divisor+7
  3556  00D7  084E               	movf	dtoa@n,w
  3557  00D8  00A8               	movwf	___aomod@dividend
  3558  00D9  084F               	movf	dtoa@n+1,w
  3559  00DA  00A9               	movwf	___aomod@dividend+1
  3560  00DB  0850               	movf	dtoa@n+2,w
  3561  00DC  00AA               	movwf	___aomod@dividend+2
  3562  00DD  0851               	movf	dtoa@n+3,w
  3563  00DE  00AB               	movwf	___aomod@dividend+3
  3564  00DF  0852               	movf	dtoa@n+4,w
  3565  00E0  00AC               	movwf	___aomod@dividend+4
  3566  00E1  0853               	movf	dtoa@n+5,w
  3567  00E2  00AD               	movwf	___aomod@dividend+5
  3568  00E3  0854               	movf	dtoa@n+6,w
  3569  00E4  00AE               	movwf	___aomod@dividend+6
  3570  00E5  0855               	movf	dtoa@n+7,w
  3571  00E6  00AF               	movwf	___aomod@dividend+7
  3572  00E7  3182  22AA  3180   	fcall	___aomod
  3573  00EA  0140               	movlb	0	; select bank0
  3574  00EB  0821               	movf	?___aomod+1,w
  3575  00EC  00F6               	movwf	abs@a+1
  3576  00ED  0820               	movf	?___aomod,w
  3577  00EE  00F5               	movwf	abs@a
  3578  00EF  3186  268C  3180   	fcall	_abs
  3579  00F2  0875               	movf	?_abs,w
  3580  00F3  3E30               	addlw	48
  3581  00F4  0140               	movlb	0	; select bank0
  3582  00F5  00C2               	movwf	??_dtoa
  3583  00F6  0856               	movf	dtoa@i,w
  3584  00F7  3E20               	addlw	(low (_dbuf| (0+256)))& (0+255)
  3585  00F8  0086               	movwf	6
  3586  00F9  3001               	movlw	1	; select bank2/3
  3587  00FA  0087               	movwf	7
  3588  00FB  0842               	movf	??_dtoa,w
  3589  00FC  0081               	movwf	1
  3590  00FD                     l1999:
  3591                           
  3592                           ;/opt/microchip/xc8/v2.35/pic/sources/c99/common/doprnt.c: 315:         --p;
  3593  00FD  30FF               	movlw	255
  3594  00FE  07C8               	addwf	dtoa@p,f
  3595  00FF  30FF               	movlw	255
  3596  0100  3DC9               	addwfc	dtoa@p+1,f
  3597  0101                     l2001:
  3598                           
  3599                           ;/opt/microchip/xc8/v2.35/pic/sources/c99/common/doprnt.c: 316:         --w;
  3600  0101  30FF               	movlw	255
  3601  0102  07CA               	addwf	dtoa@w,f
  3602  0103  30FF               	movlw	255
  3603  0104  3DCB               	addwfc	dtoa@w+1,f
  3604  0105                     l2003:
  3605                           
  3606                           ;/opt/microchip/xc8/v2.35/pic/sources/c99/common/doprnt.c: 317:         n = n / 10;
  3607  0105  300A               	movlw	10
  3608  0106  00A0               	movwf	___aodiv@divisor
  3609  0107  01A1               	clrf	___aodiv@divisor+1
  3610  0108  01A2               	clrf	___aodiv@divisor+2
  3611  0109  01A3               	clrf	___aodiv@divisor+3
  3612  010A  01A4               	clrf	___aodiv@divisor+4
  3613  010B  01A5               	clrf	___aodiv@divisor+5
  3614  010C  01A6               	clrf	___aodiv@divisor+6
  3615  010D  01A7               	clrf	___aodiv@divisor+7
  3616  010E  084E               	movf	dtoa@n,w
  3617  010F  00A8               	movwf	___aodiv@dividend
  3618  0110  084F               	movf	dtoa@n+1,w
  3619  0111  00A9               	movwf	___aodiv@dividend+1
  3620  0112  0850               	movf	dtoa@n+2,w
  3621  0113  00AA               	movwf	___aodiv@dividend+2
  3622  0114  0851               	movf	dtoa@n+3,w
  3623  0115  00AB               	movwf	___aodiv@dividend+3
  3624  0116  0852               	movf	dtoa@n+4,w
  3625  0117  00AC               	movwf	___aodiv@dividend+4
  3626  0118  0853               	movf	dtoa@n+5,w
  3627  0119  00AD               	movwf	___aodiv@dividend+5
  3628  011A  0854               	movf	dtoa@n+6,w
  3629  011B  00AE               	movwf	___aodiv@dividend+6
  3630  011C  0855               	movf	dtoa@n+7,w
  3631  011D  00AF               	movwf	___aodiv@dividend+7
  3632  011E  3181  21A6  3180   	fcall	___aodiv
  3633  0121  0140               	movlb	0	; select bank0
  3634  0122  0820               	movf	?___aodiv,w
  3635  0123  00CE               	movwf	dtoa@n
  3636  0124  0821               	movf	?___aodiv+1,w
  3637  0125  00CF               	movwf	dtoa@n+1
  3638  0126  0822               	movf	?___aodiv+2,w
  3639  0127  00D0               	movwf	dtoa@n+2
  3640  0128  0823               	movf	?___aodiv+3,w
  3641  0129  00D1               	movwf	dtoa@n+3
  3642  012A  0824               	movf	?___aodiv+4,w
  3643  012B  00D2               	movwf	dtoa@n+4
  3644  012C  0825               	movf	?___aodiv+5,w
  3645  012D  00D3               	movwf	dtoa@n+5
  3646  012E  0826               	movf	?___aodiv+6,w
  3647  012F  00D4               	movwf	dtoa@n+6
  3648  0130  0827               	movf	?___aodiv+7,w
  3649  0131  00D5               	movwf	dtoa@n+7
  3650  0132                     l921:	
  3651                           ;/opt/microchip/xc8/v2.35/pic/sources/c99/common/doprnt.c: 318:     }
  3652                           
  3653                           
  3654                           ;/opt/microchip/xc8/v2.35/pic/sources/c99/common/doprnt.c: 312:     while (!(i < 1) && (
      +                          n || (0 < p) || ((0 < w) && (flags & (1 << 1))))) {
  3655  0132  0140               	movlb	0	; select bank0
  3656  0133  0857               	movf	dtoa@i+1,w
  3657  0134  3A80               	xorlw	128
  3658  0135  00C2               	movwf	??_dtoa
  3659  0136  3080               	movlw	128
  3660  0137  0242               	subwf	??_dtoa,w
  3661  0138  1D03               	skipz
  3662  0139  293C               	goto	u1485
  3663  013A  3001               	movlw	1
  3664  013B  0256               	subwf	dtoa@i,w
  3665  013C                     u1485:
  3666  013C  1C03               	skipc
  3667  013D  293F               	goto	u1481
  3668  013E  2940               	goto	u1480
  3669  013F                     u1481:
  3670  013F  296C               	goto	l2013
  3671  0140                     u1480:
  3672  0140                     l2005:
  3673  0140  0140               	movlb	0	; select bank0
  3674  0141  084E               	movf	dtoa@n,w
  3675  0142  044F               	iorwf	dtoa@n+1,w
  3676  0143  0450               	iorwf	dtoa@n+2,w
  3677  0144  0451               	iorwf	dtoa@n+3,w
  3678  0145  0452               	iorwf	dtoa@n+4,w
  3679  0146  0453               	iorwf	dtoa@n+5,w
  3680  0147  0454               	iorwf	dtoa@n+6,w
  3681  0148  0455               	iorwf	dtoa@n+7,w
  3682  0149  1D03               	skipz
  3683  014A  294C               	goto	u1491
  3684  014B  294D               	goto	u1490
  3685  014C                     u1491:
  3686  014C  28C9               	goto	l1995
  3687  014D                     u1490:
  3688  014D                     l2007:
  3689  014D  0849               	movf	dtoa@p+1,w
  3690  014E  3A80               	xorlw	128
  3691  014F  00C2               	movwf	??_dtoa
  3692  0150  3080               	movlw	128
  3693  0151  0242               	subwf	??_dtoa,w
  3694  0152  1D03               	skipz
  3695  0153  2956               	goto	u1505
  3696  0154  3001               	movlw	1
  3697  0155  0248               	subwf	dtoa@p,w
  3698  0156                     u1505:
  3699  0156  1803               	skipnc
  3700  0157  2959               	goto	u1501
  3701  0158  295A               	goto	u1500
  3702  0159                     u1501:
  3703  0159  28C9               	goto	l1995
  3704  015A                     u1500:
  3705  015A                     l2009:
  3706  015A  0140               	movlb	0	; select bank0
  3707  015B  084B               	movf	dtoa@w+1,w
  3708  015C  3A80               	xorlw	128
  3709  015D  00C2               	movwf	??_dtoa
  3710  015E  3080               	movlw	128
  3711  015F  0242               	subwf	??_dtoa,w
  3712  0160  1D03               	skipz
  3713  0161  2964               	goto	u1515
  3714  0162  3001               	movlw	1
  3715  0163  024A               	subwf	dtoa@w,w
  3716  0164                     u1515:
  3717  0164  1C03               	skipc
  3718  0165  2967               	goto	u1511
  3719  0166  2968               	goto	u1510
  3720  0167                     u1511:
  3721  0167  296C               	goto	l2013
  3722  0168                     u1510:
  3723  0168                     l2011:
  3724  0168  18FA               	btfsc	_flags,1
  3725  0169  296B               	goto	u1521
  3726  016A  296C               	goto	u1520
  3727  016B                     u1521:
  3728  016B  28C9               	goto	l1995
  3729  016C                     u1520:
  3730  016C                     l2013:
  3731                           
  3732                           ;/opt/microchip/xc8/v2.35/pic/sources/c99/common/doprnt.c: 321:     if (s || (flags & (1
      +                           << 2))) {
  3733  016C  0140               	movlb	0	; select bank0
  3734  016D  084C               	movf	dtoa@s,w
  3735  016E  044D               	iorwf	dtoa@s+1,w
  3736  016F  1D03               	btfss	3,2
  3737  0170  2972               	goto	u1531
  3738  0171  2973               	goto	u1530
  3739  0172                     u1531:
  3740  0172  2977               	goto	l2017
  3741  0173                     u1530:
  3742  0173                     l2015:
  3743  0173  1D7A               	btfss	_flags,2
  3744  0174  2976               	goto	u1541
  3745  0175  2977               	goto	u1540
  3746  0176                     u1541:
  3747  0176  2993               	goto	l2027
  3748  0177                     u1540:
  3749  0177                     l2017:
  3750                           
  3751                           ;/opt/microchip/xc8/v2.35/pic/sources/c99/common/doprnt.c: 322:         --i;
  3752  0177  30FF               	movlw	255
  3753  0178  07D6               	addwf	dtoa@i,f
  3754  0179  30FF               	movlw	255
  3755  017A  3DD7               	addwfc	dtoa@i+1,f
  3756  017B                     l2019:
  3757                           
  3758                           ;/opt/microchip/xc8/v2.35/pic/sources/c99/common/doprnt.c: 323:         dbuf[i] = s ? '-
      +                          ' : '+';
  3759  017B  084C               	movf	dtoa@s,w
  3760  017C  044D               	iorwf	dtoa@s+1,w
  3761  017D  1D03               	btfss	3,2
  3762  017E  2980               	goto	u1551
  3763  017F  2981               	goto	u1550
  3764  0180                     u1551:
  3765  0180  2986               	goto	l2023
  3766  0181                     u1550:
  3767  0181                     l2021:
  3768  0181  302B               	movlw	43
  3769  0182  00C6               	movwf	_dtoa$1094
  3770  0183  3000               	movlw	0
  3771  0184  00C7               	movwf	_dtoa$1094+1
  3772  0185  298A               	goto	l2025
  3773  0186                     l2023:
  3774  0186  302D               	movlw	45
  3775  0187  00C6               	movwf	_dtoa$1094
  3776  0188  3000               	movlw	0
  3777  0189  00C7               	movwf	_dtoa$1094+1
  3778  018A                     l2025:
  3779  018A  0846               	movf	_dtoa$1094,w
  3780  018B  00C2               	movwf	??_dtoa
  3781  018C  0856               	movf	dtoa@i,w
  3782  018D  3E20               	addlw	(low (_dbuf| (0+256)))& (0+255)
  3783  018E  0086               	movwf	6
  3784  018F  3001               	movlw	1	; select bank2/3
  3785  0190  0087               	movwf	7
  3786  0191  0842               	movf	??_dtoa,w
  3787  0192  0081               	movwf	1
  3788  0193                     l2027:
  3789                           
  3790                           ;/opt/microchip/xc8/v2.35/pic/sources/c99/common/doprnt.c: 327:     return pad(fp, &dbuf
      +                          [i], w);
  3791  0193  0856               	movf	dtoa@i,w
  3792  0194  3E20               	addlw	(low (_dbuf| (0+256)))& (0+255)
  3793  0195  00C2               	movwf	??_dtoa
  3794  0196  0842               	movf	??_dtoa,w
  3795  0197  00A8               	movwf	pad@buf
  3796  0198  084B               	movf	dtoa@w+1,w
  3797  0199  00AA               	movwf	pad@p+1
  3798  019A  084A               	movf	dtoa@w,w
  3799  019B  00A9               	movwf	pad@p
  3800  019C  0845               	movf	dtoa@fp,w
  3801  019D  3184  246F  3180   	fcall	_pad
  3802  01A0  0140               	movlb	0	; select bank0
  3803  01A1  0829               	movf	?_pad+1,w
  3804  01A2  00BB               	movwf	?_dtoa+1
  3805  01A3  0828               	movf	?_pad,w
  3806  01A4  00BA               	movwf	?_dtoa
  3807  01A5                     l935:
  3808  01A5  0008               	return
  3809  01A6                     __end_of_dtoa:
  3810                           
  3811                           	psect	text5
  3812  046F                     __ptext5:	
  3813 ;; *************** function _pad *****************
  3814 ;; Defined at:
  3815 ;;		line 72 in file "/opt/microchip/xc8/v2.35/pic/sources/c99/common/doprnt.c"
  3816 ;; Parameters:    Size  Location     Type
  3817 ;;  fp              1    wreg     PTR struct _IO_FILE
  3818 ;;		 -> sprintf@f(10), 
  3819 ;;  buf             1    8[BANK0 ] PTR unsigned char 
  3820 ;;		 -> dbuf(32), 
  3821 ;;  p               2    9[BANK0 ] int 
  3822 ;; Auto vars:     Size  Location     Type
  3823 ;;  fp              1   16[BANK0 ] PTR struct _IO_FILE
  3824 ;;		 -> sprintf@f(10), 
  3825 ;;  w               2   14[BANK0 ] int 
  3826 ;;  i               2   12[BANK0 ] int 
  3827 ;; Return value:  Size  Location     Type
  3828 ;;                  2    8[BANK0 ] int 
  3829 ;; Registers used:
  3830 ;;		wreg, fsr0l, fsr0h, fsr1l, fsr1h, status,2, status,0, pclath, cstack
  3831 ;; Tracked objects:
  3832 ;;		On entry : 0/0
  3833 ;;		On exit  : 0/0
  3834 ;;		Unchanged: 0/0
  3835 ;; Data sizes:     COMMON   BANK0   BANK1   BANK2   BANK3   BANK4   BANK5   BANK6
  3836 ;;      Params:         0       3       0       0       0       0       0       0
  3837 ;;      Locals:         0       5       0       0       0       0       0       0
  3838 ;;      Temps:          0       1       0       0       0       0       0       0
  3839 ;;      Totals:         0       9       0       0       0       0       0       0
  3840 ;;Total ram usage:        9 bytes
  3841 ;; Hardware stack levels used: 1
  3842 ;; Hardware stack levels required when called: 7
  3843 ;; This function calls:
  3844 ;;		_fputc
  3845 ;;		_fputs
  3846 ;;		_strlen
  3847 ;; This function is called by:
  3848 ;;		_dtoa
  3849 ;; This function uses a non-reentrant model
  3850 ;;
  3851                           
  3852  046F                     _pad:	
  3853                           ;psect for function _pad
  3854                           
  3855                           
  3856                           ;incstack = 0
  3857                           ; Regs used in _pad: [wreg-fsr1h+status,2+status,0+pclath+cstack]
  3858                           ;pad@fp stored from wreg
  3859  046F  0140               	movlb	0	; select bank0
  3860  0470  00B0               	movwf	pad@fp
  3861  0471                     l1951:
  3862                           
  3863                           ;/opt/microchip/xc8/v2.35/pic/sources/c99/common/doprnt.c: 72: static int pad(FILE *fp, 
      +                          char *buf, int p);/opt/microchip/xc8/v2.35/pic/sources/c99/common/doprnt.c: 73: {;/opt/m
      +                          icrochip/xc8/v2.35/pic/sources/c99/common/doprnt.c: 74:     int i, w;;/opt/microchip/xc8
      +                          /v2.35/pic/sources/c99/common/doprnt.c: 77:     if (flags & (1 << 0)) {
  3864  0471  1C7A               	btfss	_flags,0
  3865  0472  2C74               	goto	u1361
  3866  0473  2C75               	goto	u1360
  3867  0474                     u1361:
  3868  0474  2C7D               	goto	l1955
  3869  0475                     u1360:
  3870  0475                     l1953:
  3871                           
  3872                           ;/opt/microchip/xc8/v2.35/pic/sources/c99/common/doprnt.c: 78:         fputs((const char
      +                           *)buf, fp);
  3873  0475  0830               	movf	pad@fp,w
  3874  0476  00AB               	movwf	??_pad
  3875  0477  082B               	movf	??_pad,w
  3876  0478  00A0               	movwf	fputs@fp
  3877  0479  0828               	movf	pad@buf,w
  3878  047A  3185  25DF  3184   	fcall	_fputs
  3879  047D                     l1955:
  3880                           
  3881                           ;/opt/microchip/xc8/v2.35/pic/sources/c99/common/doprnt.c: 82:     w = (p < 0) ? 0 : p;
  3882  047D  0140               	movlb	0	; select bank0
  3883  047E  1BAA               	btfsc	pad@p+1,7
  3884  047F  2C81               	goto	u1371
  3885  0480  2C82               	goto	u1370
  3886  0481                     u1371:
  3887  0481  2C87               	goto	l1959
  3888  0482                     u1370:
  3889  0482                     l1957:
  3890  0482  082A               	movf	pad@p+1,w
  3891  0483  00AF               	movwf	pad@w+1
  3892  0484  0829               	movf	pad@p,w
  3893  0485  00AE               	movwf	pad@w
  3894  0486  2C89               	goto	l904
  3895  0487                     l1959:
  3896  0487  01AE               	clrf	pad@w
  3897  0488  01AF               	clrf	pad@w+1
  3898  0489                     l904:
  3899                           
  3900                           ;/opt/microchip/xc8/v2.35/pic/sources/c99/common/doprnt.c: 83:     i = 0;
  3901  0489  01AC               	clrf	pad@i
  3902  048A  01AD               	clrf	pad@i+1
  3903                           
  3904                           ;/opt/microchip/xc8/v2.35/pic/sources/c99/common/doprnt.c: 84:     while (i < w) {
  3905  048B  2C9D               	goto	l1965
  3906  048C                     l1961:
  3907                           
  3908                           ;/opt/microchip/xc8/v2.35/pic/sources/c99/common/doprnt.c: 85:         fputc(' ', fp);
  3909  048C  3020               	movlw	32
  3910  048D  00F2               	movwf	fputc@c
  3911  048E  3000               	movlw	0
  3912  048F  00F3               	movwf	fputc@c+1
  3913  0490  0140               	movlb	0	; select bank0
  3914  0491  0830               	movf	pad@fp,w
  3915  0492  00AB               	movwf	??_pad
  3916  0493  082B               	movf	??_pad,w
  3917  0494  00F4               	movwf	fputc@fp
  3918  0495  3184  24C5  3184   	fcall	_fputc
  3919  0498                     l1963:
  3920                           
  3921                           ;/opt/microchip/xc8/v2.35/pic/sources/c99/common/doprnt.c: 86:         ++i;
  3922  0498  3001               	movlw	1
  3923  0499  0140               	movlb	0	; select bank0
  3924  049A  07AC               	addwf	pad@i,f
  3925  049B  3000               	movlw	0
  3926  049C  3DAD               	addwfc	pad@i+1,f
  3927  049D                     l1965:
  3928                           
  3929                           ;/opt/microchip/xc8/v2.35/pic/sources/c99/common/doprnt.c: 84:     while (i < w) {
  3930  049D  082D               	movf	pad@i+1,w
  3931  049E  3A80               	xorlw	128
  3932  049F  00AB               	movwf	??_pad
  3933  04A0  082F               	movf	pad@w+1,w
  3934  04A1  3A80               	xorlw	128
  3935  04A2  022B               	subwf	??_pad,w
  3936  04A3  1D03               	skipz
  3937  04A4  2CA7               	goto	u1385
  3938  04A5  082E               	movf	pad@w,w
  3939  04A6  022C               	subwf	pad@i,w
  3940  04A7                     u1385:
  3941  04A7  1C03               	skipc
  3942  04A8  2CAA               	goto	u1381
  3943  04A9  2CAB               	goto	u1380
  3944  04AA                     u1381:
  3945  04AA  2C8C               	goto	l1961
  3946  04AB                     u1380:
  3947  04AB                     l907:
  3948                           
  3949                           ;/opt/microchip/xc8/v2.35/pic/sources/c99/common/doprnt.c: 90:     if (!(flags & (1 << 0
      +                          ))) {
  3950  04AB  187A               	btfsc	_flags,0
  3951  04AC  2CAE               	goto	u1391
  3952  04AD  2CAF               	goto	u1390
  3953  04AE                     u1391:
  3954  04AE  2CB8               	goto	l1969
  3955  04AF                     u1390:
  3956  04AF                     l1967:
  3957                           
  3958                           ;/opt/microchip/xc8/v2.35/pic/sources/c99/common/doprnt.c: 91:         fputs((const char
      +                           *)buf, fp);
  3959  04AF  0140               	movlb	0	; select bank0
  3960  04B0  0830               	movf	pad@fp,w
  3961  04B1  00AB               	movwf	??_pad
  3962  04B2  082B               	movf	??_pad,w
  3963  04B3  00A0               	movwf	fputs@fp
  3964  04B4  0828               	movf	pad@buf,w
  3965  04B5  3185  25DF  3184   	fcall	_fputs
  3966  04B8                     l1969:
  3967                           
  3968                           ;/opt/microchip/xc8/v2.35/pic/sources/c99/common/doprnt.c: 94:     return (int)(strlen(b
      +                          uf) + (size_t)w);
  3969  04B8  0140               	movlb	0	; select bank0
  3970  04B9  0828               	movf	pad@buf,w
  3971  04BA  3186  2672  3184   	fcall	_strlen
  3972  04BD  0140               	movlb	0	; select bank0
  3973  04BE  082E               	movf	pad@w,w
  3974  04BF  0772               	addwf	?_strlen,w
  3975  04C0  00A8               	movwf	?_pad
  3976  04C1  082F               	movf	pad@w+1,w
  3977  04C2  3D73               	addwfc	?_strlen+1,w
  3978  04C3  00A9               	movwf	?_pad+1
  3979  04C4                     l909:
  3980  04C4  0008               	return
  3981  04C5                     __end_of_pad:
  3982                           
  3983                           	psect	text6
  3984  0672                     __ptext6:	
  3985 ;; *************** function _strlen *****************
  3986 ;; Defined at:
  3987 ;;		line 5 in file "/opt/microchip/xc8/v2.35/pic/sources/c99/common/strlen.c"
  3988 ;; Parameters:    Size  Location     Type
  3989 ;;  s               1    wreg     PTR const unsigned char 
  3990 ;;		 -> dbuf(32), 
  3991 ;; Auto vars:     Size  Location     Type
  3992 ;;  s               1    6[COMMON] PTR const unsigned char 
  3993 ;;		 -> dbuf(32), 
  3994 ;;  a               1    5[COMMON] PTR const unsigned char 
  3995 ;;		 -> dbuf(32), 
  3996 ;; Return value:  Size  Location     Type
  3997 ;;                  2    2[COMMON] unsigned int 
  3998 ;; Registers used:
  3999 ;;		wreg, fsr1l, fsr1h, status,2, status,0
  4000 ;; Tracked objects:
  4001 ;;		On entry : 0/0
  4002 ;;		On exit  : 0/0
  4003 ;;		Unchanged: 0/0
  4004 ;; Data sizes:     COMMON   BANK0   BANK1   BANK2   BANK3   BANK4   BANK5   BANK6
  4005 ;;      Params:         2       0       0       0       0       0       0       0
  4006 ;;      Locals:         2       0       0       0       0       0       0       0
  4007 ;;      Temps:          1       0       0       0       0       0       0       0
  4008 ;;      Totals:         5       0       0       0       0       0       0       0
  4009 ;;Total ram usage:        5 bytes
  4010 ;; Hardware stack levels used: 1
  4011 ;; Hardware stack levels required when called: 4
  4012 ;; This function calls:
  4013 ;;		Nothing
  4014 ;; This function is called by:
  4015 ;;		_pad
  4016 ;; This function uses a non-reentrant model
  4017 ;;
  4018                           
  4019  0672                     _strlen:	
  4020                           ;psect for function _strlen
  4021                           
  4022                           
  4023                           ;incstack = 0
  4024                           ; Regs used in _strlen: [wreg+fsr1l+fsr1h+status,2+status,0]
  4025                           ;strlen@s stored from wreg
  4026  0672  00F6               	movwf	strlen@s
  4027  0673                     l1505:
  4028  0673  0876               	movf	strlen@s,w
  4029  0674  00F4               	movwf	??_strlen
  4030  0675  0874               	movf	??_strlen,w
  4031  0676  00F5               	movwf	strlen@a
  4032  0677  2E7C               	goto	l1509
  4033  0678                     l1507:
  4034  0678  3001               	movlw	1
  4035  0679  00F4               	movwf	??_strlen
  4036  067A  0874               	movf	??_strlen,w
  4037  067B  07F6               	addwf	strlen@s,f
  4038  067C                     l1509:
  4039  067C  0876               	movf	strlen@s,w
  4040  067D  0086               	movwf	6
  4041  067E  3001               	movlw	1	; select bank2/3
  4042  067F  0087               	movwf	7
  4043  0680  0801               	movf	1,w
  4044  0681  1D03               	btfss	3,2
  4045  0682  2E84               	goto	u741
  4046  0683  2E85               	goto	u740
  4047  0684                     u741:
  4048  0684  2E78               	goto	l1507
  4049  0685                     u740:
  4050  0685                     l1511:
  4051  0685  0875               	movf	strlen@a,w
  4052  0686  0276               	subwf	strlen@s,w
  4053  0687  00F2               	movwf	?_strlen
  4054  0688  01F3               	clrf	?_strlen+1
  4055  0689  1BF2               	btfsc	?_strlen,7
  4056  068A  03F3               	decf	?_strlen+1,f
  4057  068B                     l985:
  4058  068B  0008               	return
  4059  068C                     __end_of_strlen:
  4060                           
  4061                           	psect	text7
  4062  05DF                     __ptext7:	
  4063 ;; *************** function _fputs *****************
  4064 ;; Defined at:
  4065 ;;		line 8 in file "/opt/microchip/xc8/v2.35/pic/sources/c99/common/nf_fputs.c"
  4066 ;; Parameters:    Size  Location     Type
  4067 ;;  s               1    wreg     PTR const unsigned char 
  4068 ;;		 -> dbuf(32), 
  4069 ;;  fp              1    0[BANK0 ] PTR struct _IO_FILE
  4070 ;;		 -> sprintf@f(10), 
  4071 ;; Auto vars:     Size  Location     Type
  4072 ;;  s               1    7[BANK0 ] PTR const unsigned char 
  4073 ;;		 -> dbuf(32), 
  4074 ;;  i               2    5[BANK0 ] int 
  4075 ;;  c               1    4[BANK0 ] unsigned char 
  4076 ;; Return value:  Size  Location     Type
  4077 ;;                  2    0[BANK0 ] int 
  4078 ;; Registers used:
  4079 ;;		wreg, fsr0l, fsr0h, fsr1l, fsr1h, status,2, status,0, pclath, cstack
  4080 ;; Tracked objects:
  4081 ;;		On entry : 0/0
  4082 ;;		On exit  : 0/0
  4083 ;;		Unchanged: 0/0
  4084 ;; Data sizes:     COMMON   BANK0   BANK1   BANK2   BANK3   BANK4   BANK5   BANK6
  4085 ;;      Params:         0       1       0       0       0       0       0       0
  4086 ;;      Locals:         0       4       0       0       0       0       0       0
  4087 ;;      Temps:          0       3       0       0       0       0       0       0
  4088 ;;      Totals:         0       8       0       0       0       0       0       0
  4089 ;;Total ram usage:        8 bytes
  4090 ;; Hardware stack levels used: 1
  4091 ;; Hardware stack levels required when called: 6
  4092 ;; This function calls:
  4093 ;;		_fputc
  4094 ;; This function is called by:
  4095 ;;		_pad
  4096 ;; This function uses a non-reentrant model
  4097 ;;
  4098                           
  4099  05DF                     _fputs:	
  4100                           ;psect for function _fputs
  4101                           
  4102                           
  4103                           ;incstack = 0
  4104                           ; Regs used in _fputs: [wreg-fsr1h+status,2+status,0+pclath+cstack]
  4105                           ;fputs@s stored from wreg
  4106  05DF  0140               	movlb	0	; select bank0
  4107  05E0  00A7               	movwf	fputs@s
  4108  05E1                     l1943:
  4109  05E1  01A5               	clrf	fputs@i
  4110  05E2  01A6               	clrf	fputs@i+1
  4111  05E3  2DF7               	goto	l1949
  4112  05E4                     l1945:
  4113  05E4  0824               	movf	fputs@c,w
  4114  05E5  00A1               	movwf	??_fputs
  4115  05E6  01A2               	clrf	??_fputs+1
  4116  05E7  0821               	movf	??_fputs,w
  4117  05E8  00F2               	movwf	fputc@c
  4118  05E9  0822               	movf	??_fputs+1,w
  4119  05EA  00F3               	movwf	fputc@c+1
  4120  05EB  0820               	movf	fputs@fp,w
  4121  05EC  00A3               	movwf	??_fputs+2
  4122  05ED  0823               	movf	??_fputs+2,w
  4123  05EE  00F4               	movwf	fputc@fp
  4124  05EF  3184  24C5  3185   	fcall	_fputc
  4125  05F2                     l1947:
  4126  05F2  3001               	movlw	1
  4127  05F3  0140               	movlb	0	; select bank0
  4128  05F4  07A5               	addwf	fputs@i,f
  4129  05F5  3000               	movlw	0
  4130  05F6  3DA6               	addwfc	fputs@i+1,f
  4131  05F7                     l1949:
  4132  05F7  0825               	movf	fputs@i,w
  4133  05F8  0727               	addwf	fputs@s,w
  4134  05F9  00A1               	movwf	??_fputs
  4135  05FA  0821               	movf	??_fputs,w
  4136  05FB  0086               	movwf	6
  4137  05FC  3001               	movlw	1	; select bank2/3
  4138  05FD  0087               	movwf	7
  4139  05FE  0801               	movf	1,w
  4140  05FF  00A2               	movwf	??_fputs+1
  4141  0600  0822               	movf	??_fputs+1,w
  4142  0601  00A4               	movwf	fputs@c
  4143  0602  0824               	movf	fputs@c,w
  4144  0603  1D03               	btfss	3,2
  4145  0604  2E06               	goto	u1351
  4146  0605  2E07               	goto	u1350
  4147  0606                     u1351:
  4148  0606  2DE4               	goto	l1945
  4149  0607                     u1350:
  4150  0607                     l976:
  4151  0607  0008               	return
  4152  0608                     __end_of_fputs:
  4153                           
  4154                           	psect	text8
  4155  04C5                     __ptext8:	
  4156 ;; *************** function _fputc *****************
  4157 ;; Defined at:
  4158 ;;		line 8 in file "/opt/microchip/xc8/v2.35/pic/sources/c99/common/nf_fputc.c"
  4159 ;; Parameters:    Size  Location     Type
  4160 ;;  c               2    2[COMMON] int 
  4161 ;;  fp              1    4[COMMON] PTR struct _IO_FILE
  4162 ;;		 -> sprintf@f(10), 
  4163 ;; Auto vars:     Size  Location     Type
  4164 ;;		None
  4165 ;; Return value:  Size  Location     Type
  4166 ;;                  2    2[COMMON] int 
  4167 ;; Registers used:
  4168 ;;		wreg, fsr0l, fsr0h, fsr1l, fsr1h, status,2, status,0, pclath, cstack
  4169 ;; Tracked objects:
  4170 ;;		On entry : 0/0
  4171 ;;		On exit  : 0/0
  4172 ;;		Unchanged: 0/0
  4173 ;; Data sizes:     COMMON   BANK0   BANK1   BANK2   BANK3   BANK4   BANK5   BANK6
  4174 ;;      Params:         3       0       0       0       0       0       0       0
  4175 ;;      Locals:         0       0       0       0       0       0       0       0
  4176 ;;      Temps:          5       0       0       0       0       0       0       0
  4177 ;;      Totals:         8       0       0       0       0       0       0       0
  4178 ;;Total ram usage:        8 bytes
  4179 ;; Hardware stack levels used: 1
  4180 ;; Hardware stack levels required when called: 5
  4181 ;; This function calls:
  4182 ;;		_putch
  4183 ;; This function is called by:
  4184 ;;		_pad
  4185 ;;		_vfpfcnvrt
  4186 ;;		_fputs
  4187 ;; This function uses a non-reentrant model
  4188 ;;
  4189                           
  4190  04C5                     _fputc:	
  4191                           ;psect for function _fputc
  4192                           
  4193  04C5                     l1481:	
  4194                           ;incstack = 0
  4195                           ; Regs used in _fputc: [wreg-fsr1h+status,2+status,0+pclath+cstack]
  4196                           
  4197  04C5  0874               	movf	fputc@fp,w
  4198  04C6  1903               	btfsc	3,2
  4199  04C7  2CC9               	goto	u691
  4200  04C8  2CCA               	goto	u690
  4201  04C9                     u691:
  4202  04C9  2CCF               	goto	l1485
  4203  04CA                     u690:
  4204  04CA                     l1483:
  4205  04CA  0874               	movf	fputc@fp,w
  4206  04CB  1D03               	btfss	3,2
  4207  04CC  2CCE               	goto	u701
  4208  04CD  2CCF               	goto	u700
  4209  04CE                     u701:
  4210  04CE  2CD4               	goto	l1487
  4211  04CF                     u700:
  4212  04CF                     l1485:
  4213  04CF  0872               	movf	fputc@c,w
  4214  04D0  3187  2741  3184   	fcall	_putch
  4215  04D3  2D16               	goto	l968
  4216  04D4                     l1487:
  4217  04D4  0874               	movf	fputc@fp,w
  4218  04D5  3E08               	addlw	8
  4219  04D6  0086               	movwf	6
  4220  04D7  0187               	clrf	7
  4221  04D8  0016               	moviw fsr1++
  4222  04D9  0401               	iorwf	1,w
  4223  04DA  1903               	btfsc	3,2
  4224  04DB  2CDD               	goto	u711
  4225  04DC  2CDE               	goto	u710
  4226  04DD                     u711:
  4227  04DD  2CFC               	goto	l1491
  4228  04DE                     u710:
  4229  04DE                     l1489:
  4230  04DE  0874               	movf	fputc@fp,w
  4231  04DF  3E08               	addlw	8
  4232  04E0  0086               	movwf	6
  4233  04E1  0187               	clrf	7
  4234  04E2  3F40               	moviw [0]fsr1
  4235  04E3  00F5               	movwf	??_fputc
  4236  04E4  3F41               	moviw [1]fsr1
  4237  04E5  00F6               	movwf	??_fputc+1
  4238  04E6  0874               	movf	fputc@fp,w
  4239  04E7  3E02               	addlw	2
  4240  04E8  0086               	movwf	6
  4241  04E9  0187               	clrf	7
  4242  04EA  3F40               	moviw [0]fsr1
  4243  04EB  00F7               	movwf	??_fputc+2
  4244  04EC  3F41               	moviw [1]fsr1
  4245  04ED  00F8               	movwf	??_fputc+3
  4246  04EE  0878               	movf	??_fputc+3,w
  4247  04EF  3A80               	xorlw	128
  4248  04F0  00F9               	movwf	??_fputc+4
  4249  04F1  0876               	movf	??_fputc+1,w
  4250  04F2  3A80               	xorlw	128
  4251  04F3  0279               	subwf	??_fputc+4,w
  4252  04F4  1D03               	skipz
  4253  04F5  2CF8               	goto	u725
  4254  04F6  0875               	movf	??_fputc,w
  4255  04F7  0277               	subwf	??_fputc+2,w
  4256  04F8                     u725:
  4257  04F8  1803               	skipnc
  4258  04F9  2CFB               	goto	u721
  4259  04FA  2CFC               	goto	u720
  4260  04FB                     u721:
  4261  04FB  2D16               	goto	l968
  4262  04FC                     u720:
  4263  04FC                     l1491:
  4264  04FC  0872               	movf	fputc@c,w
  4265  04FD  00F5               	movwf	??_fputc
  4266  04FE  0874               	movf	fputc@fp,w
  4267  04FF  0086               	movwf	6
  4268  0500  0187               	clrf	7
  4269  0501  0874               	movf	fputc@fp,w
  4270  0502  3E02               	addlw	2
  4271  0503  0084               	movwf	4
  4272  0504  0185               	clrf	5
  4273  0505  0800               	movf	0,w
  4274  0506  0701               	addwf	1,w
  4275  0507  00F6               	movwf	??_fputc+1
  4276  0508  0876               	movf	??_fputc+1,w
  4277  0509  0086               	movwf	6
  4278  050A  0187               	clrf	7
  4279  050B  0875               	movf	??_fputc,w
  4280  050C  0081               	movwf	1
  4281  050D                     l1493:
  4282  050D  0874               	movf	fputc@fp,w
  4283  050E  3E02               	addlw	2
  4284  050F  0086               	movwf	6
  4285  0510  0187               	clrf	7
  4286  0511  3001               	movlw	1
  4287  0512  0781               	addwf	1,f
  4288  0513  3141               	addfsr 1,1
  4289  0514  1803               	skipnc
  4290  0515  0A81               	incf	1,f
  4291  0516                     l968:
  4292  0516  0008               	return
  4293  0517                     __end_of_fputc:
  4294                           
  4295                           	psect	text9
  4296  0741                     __ptext9:	
  4297 ;; *************** function _putch *****************
  4298 ;; Defined at:
  4299 ;;		line 7 in file "/opt/microchip/xc8/v2.35/pic/sources/c99/common/putch.c"
  4300 ;; Parameters:    Size  Location     Type
  4301 ;;  c               1    wreg     unsigned char 
  4302 ;; Auto vars:     Size  Location     Type
  4303 ;;  c               1    0[COMMON] unsigned char 
  4304 ;; Return value:  Size  Location     Type
  4305 ;;                  1    wreg      void 
  4306 ;; Registers used:
  4307 ;;		wreg
  4308 ;; Tracked objects:
  4309 ;;		On entry : 0/0
  4310 ;;		On exit  : 0/0
  4311 ;;		Unchanged: 0/0
  4312 ;; Data sizes:     COMMON   BANK0   BANK1   BANK2   BANK3   BANK4   BANK5   BANK6
  4313 ;;      Params:         0       0       0       0       0       0       0       0
  4314 ;;      Locals:         0       0       0       0       0       0       0       0
  4315 ;;      Temps:          0       0       0       0       0       0       0       0
  4316 ;;      Totals:         0       0       0       0       0       0       0       0
  4317 ;;Total ram usage:        0 bytes
  4318 ;; Hardware stack levels used: 1
  4319 ;; Hardware stack levels required when called: 4
  4320 ;; This function calls:
  4321 ;;		Nothing
  4322 ;; This function is called by:
  4323 ;;		_fputc
  4324 ;; This function uses a non-reentrant model
  4325 ;;
  4326                           
  4327  0741                     _putch:	
  4328                           ;psect for function _putch
  4329                           
  4330  0741                     l979:	
  4331                           ;incstack = 0
  4332                           ; Regs used in _putch: [wreg]
  4333                           
  4334  0741  0008               	return
  4335  0742                     __end_of_putch:
  4336                           
  4337                           	psect	text10
  4338  068C                     __ptext10:	
  4339 ;; *************** function _abs *****************
  4340 ;; Defined at:
  4341 ;;		line 1 in file "/opt/microchip/xc8/v2.35/pic/sources/c99/common/abs.c"
  4342 ;; Parameters:    Size  Location     Type
  4343 ;;  a               2    5[COMMON] int 
  4344 ;; Auto vars:     Size  Location     Type
  4345 ;;		None
  4346 ;; Return value:  Size  Location     Type
  4347 ;;                  2    5[COMMON] int 
  4348 ;; Registers used:
  4349 ;;		wreg, status,2, status,0
  4350 ;; Tracked objects:
  4351 ;;		On entry : 0/0
  4352 ;;		On exit  : 0/0
  4353 ;;		Unchanged: 0/0
  4354 ;; Data sizes:     COMMON   BANK0   BANK1   BANK2   BANK3   BANK4   BANK5   BANK6
  4355 ;;      Params:         2       0       0       0       0       0       0       0
  4356 ;;      Locals:         0       0       0       0       0       0       0       0
  4357 ;;      Temps:          2       0       0       0       0       0       0       0
  4358 ;;      Totals:         4       0       0       0       0       0       0       0
  4359 ;;Total ram usage:        4 bytes
  4360 ;; Hardware stack levels used: 1
  4361 ;; Hardware stack levels required when called: 4
  4362 ;; This function calls:
  4363 ;;		Nothing
  4364 ;; This function is called by:
  4365 ;;		_dtoa
  4366 ;; This function uses a non-reentrant model
  4367 ;;
  4368                           
  4369  068C                     _abs:	
  4370                           ;psect for function _abs
  4371                           
  4372  068C                     l1605:	
  4373                           ;incstack = 0
  4374                           ; Regs used in _abs: [wreg+status,2+status,0]
  4375                           
  4376  068C  0876               	movf	abs@a+1,w
  4377  068D  3A80               	xorlw	128
  4378  068E  00F7               	movwf	??_abs
  4379  068F  3080               	movlw	128
  4380  0690  0277               	subwf	??_abs,w
  4381  0691  1D03               	skipz
  4382  0692  2E95               	goto	u1005
  4383  0693  3001               	movlw	1
  4384  0694  0275               	subwf	abs@a,w
  4385  0695                     u1005:
  4386  0695  1803               	skipnc
  4387  0696  2E98               	goto	u1001
  4388  0697  2E99               	goto	u1000
  4389  0698                     u1001:
  4390  0698  2EA5               	goto	l953
  4391  0699                     u1000:
  4392  0699                     l1607:
  4393  0699  0975               	comf	abs@a,w
  4394  069A  00F7               	movwf	??_abs
  4395  069B  0976               	comf	abs@a+1,w
  4396  069C  00F8               	movwf	??_abs+1
  4397  069D  0AF7               	incf	??_abs,f
  4398  069E  1903               	skipnz
  4399  069F  0AF8               	incf	??_abs+1,f
  4400  06A0  0877               	movf	??_abs,w
  4401  06A1  00F5               	movwf	?_abs
  4402  06A2  0878               	movf	??_abs+1,w
  4403  06A3  00F6               	movwf	?_abs+1
  4404  06A4  2EA5               	goto	l956
  4405  06A5                     l953:
  4406  06A5                     l956:
  4407  06A5  0008               	return
  4408  06A6                     __end_of_abs:
  4409                           
  4410                           	psect	text11
  4411  02AA                     __ptext11:	
  4412 ;; *************** function ___aomod *****************
  4413 ;; Defined at:
  4414 ;;		line 7 in file "/opt/microchip/xc8/v2.35/pic/sources/c99/common/aomod.c"
  4415 ;; Parameters:    Size  Location     Type
  4416 ;;  divisor         8    0[BANK0 ] long long 
  4417 ;;  dividend        8    8[BANK0 ] long long 
  4418 ;; Auto vars:     Size  Location     Type
  4419 ;;  sign            1    4[COMMON] unsigned char 
  4420 ;;  counter         1    3[COMMON] unsigned char 
  4421 ;; Return value:  Size  Location     Type
  4422 ;;                  8    0[BANK0 ] long long 
  4423 ;; Registers used:
  4424 ;;		wreg, fsr1l, fsr1h, status,2, status,0
  4425 ;; Tracked objects:
  4426 ;;		On entry : 0/0
  4427 ;;		On exit  : 0/0
  4428 ;;		Unchanged: 0/0
  4429 ;; Data sizes:     COMMON   BANK0   BANK1   BANK2   BANK3   BANK4   BANK5   BANK6
  4430 ;;      Params:         0      16       0       0       0       0       0       0
  4431 ;;      Locals:         2       0       0       0       0       0       0       0
  4432 ;;      Temps:          1       0       0       0       0       0       0       0
  4433 ;;      Totals:         3      16       0       0       0       0       0       0
  4434 ;;Total ram usage:       19 bytes
  4435 ;; Hardware stack levels used: 1
  4436 ;; Hardware stack levels required when called: 4
  4437 ;; This function calls:
  4438 ;;		Nothing
  4439 ;; This function is called by:
  4440 ;;		_dtoa
  4441 ;; This function uses a non-reentrant model
  4442 ;;
  4443                           
  4444  02AA                     ___aomod:	
  4445                           ;psect for function ___aomod
  4446                           
  4447  02AA                     l1553:	
  4448                           ;incstack = 0
  4449                           ; Regs used in ___aomod: [wreg+fsr1l+fsr1h+status,2+status,0]
  4450                           
  4451  02AA  01F4               	clrf	___aomod@sign
  4452  02AB                     l1555:
  4453  02AB  3028               	movlw	low ___aomod@dividend
  4454  02AC  0086               	movwf	6
  4455  02AD  3000               	movlw	high ___aomod@dividend
  4456  02AE  0087               	movwf	7
  4457  02AF  3F47               	moviw [7]fsr1
  4458  02B0  00F2               	movwf	??___aomod
  4459  02B1  1FF2               	btfss	??___aomod,7
  4460  02B2  2AB4               	goto	u861
  4461  02B3  2AB5               	goto	u860
  4462  02B4                     u861:
  4463  02B4  2AD6               	goto	l1559
  4464  02B5                     u860:
  4465  02B5                     l1557:
  4466  02B5  0140               	movlb	0	; select bank0
  4467  02B6  09A8               	comf	___aomod@dividend,f
  4468  02B7  09A9               	comf	___aomod@dividend+1,f
  4469  02B8  09AA               	comf	___aomod@dividend+2,f
  4470  02B9  09AB               	comf	___aomod@dividend+3,f
  4471  02BA  09AC               	comf	___aomod@dividend+4,f
  4472  02BB  09AD               	comf	___aomod@dividend+5,f
  4473  02BC  09AE               	comf	___aomod@dividend+6,f
  4474  02BD  09AF               	comf	___aomod@dividend+7,f
  4475  02BE  0AA8               	incf	___aomod@dividend,f
  4476  02BF  1D03               	skipz
  4477  02C0  2AD4               	goto	u87lld
  4478  02C1  0AA9               	incf	___aomod@dividend+1,f
  4479  02C2  1D03               	skipz
  4480  02C3  2AD4               	goto	u87lld
  4481  02C4  0AAA               	incf	___aomod@dividend+2,f
  4482  02C5  1D03               	skipz
  4483  02C6  2AD4               	goto	u87lld
  4484  02C7  0AAB               	incf	___aomod@dividend+3,f
  4485  02C8  1D03               	skipz
  4486  02C9  2AD4               	goto	u87lld
  4487  02CA  0AAC               	incf	___aomod@dividend+4,f
  4488  02CB  1D03               	skipz
  4489  02CC  2AD4               	goto	u87lld
  4490  02CD  0AAD               	incf	___aomod@dividend+5,f
  4491  02CE  1D03               	skipz
  4492  02CF  2AD4               	goto	u87lld
  4493  02D0  0AAE               	incf	___aomod@dividend+6,f
  4494  02D1  1D03               	skipz
  4495  02D2  2AD4               	goto	u87lld
  4496  02D3  0AAF               	incf	___aomod@dividend+7,f
  4497  02D4                     u87lld:
  4498  02D4  01F4               	clrf	___aomod@sign
  4499  02D5  0AF4               	incf	___aomod@sign,f
  4500  02D6                     l1559:
  4501  02D6  3020               	movlw	low ___aomod@divisor
  4502  02D7  0086               	movwf	6
  4503  02D8  3000               	movlw	high ___aomod@divisor
  4504  02D9  0087               	movwf	7
  4505  02DA  3F47               	moviw [7]fsr1
  4506  02DB  00F2               	movwf	??___aomod
  4507  02DC  1FF2               	btfss	??___aomod,7
  4508  02DD  2ADF               	goto	u881
  4509  02DE  2AE0               	goto	u880
  4510  02DF                     u881:
  4511  02DF  2AFF               	goto	l1563
  4512  02E0                     u880:
  4513  02E0                     l1561:
  4514  02E0  0140               	movlb	0	; select bank0
  4515  02E1  09A0               	comf	___aomod@divisor,f
  4516  02E2  09A1               	comf	___aomod@divisor+1,f
  4517  02E3  09A2               	comf	___aomod@divisor+2,f
  4518  02E4  09A3               	comf	___aomod@divisor+3,f
  4519  02E5  09A4               	comf	___aomod@divisor+4,f
  4520  02E6  09A5               	comf	___aomod@divisor+5,f
  4521  02E7  09A6               	comf	___aomod@divisor+6,f
  4522  02E8  09A7               	comf	___aomod@divisor+7,f
  4523  02E9  0AA0               	incf	___aomod@divisor,f
  4524  02EA  1D03               	skipz
  4525  02EB  2AFF               	goto	u89lld
  4526  02EC  0AA1               	incf	___aomod@divisor+1,f
  4527  02ED  1D03               	skipz
  4528  02EE  2AFF               	goto	u89lld
  4529  02EF  0AA2               	incf	___aomod@divisor+2,f
  4530  02F0  1D03               	skipz
  4531  02F1  2AFF               	goto	u89lld
  4532  02F2  0AA3               	incf	___aomod@divisor+3,f
  4533  02F3  1D03               	skipz
  4534  02F4  2AFF               	goto	u89lld
  4535  02F5  0AA4               	incf	___aomod@divisor+4,f
  4536  02F6  1D03               	skipz
  4537  02F7  2AFF               	goto	u89lld
  4538  02F8  0AA5               	incf	___aomod@divisor+5,f
  4539  02F9  1D03               	skipz
  4540  02FA  2AFF               	goto	u89lld
  4541  02FB  0AA6               	incf	___aomod@divisor+6,f
  4542  02FC  1D03               	skipz
  4543  02FD  2AFF               	goto	u89lld
  4544  02FE  0AA7               	incf	___aomod@divisor+7,f
  4545  02FF                     u89lld:
  4546  02FF                     l1563:
  4547  02FF  0140               	movlb	0	; select bank0
  4548  0300  0820               	movf	___aomod@divisor,w
  4549  0301  0421               	iorwf	___aomod@divisor+1,w
  4550  0302  0422               	iorwf	___aomod@divisor+2,w
  4551  0303  0423               	iorwf	___aomod@divisor+3,w
  4552  0304  0424               	iorwf	___aomod@divisor+4,w
  4553  0305  0425               	iorwf	___aomod@divisor+5,w
  4554  0306  0426               	iorwf	___aomod@divisor+6,w
  4555  0307  0427               	iorwf	___aomod@divisor+7,w
  4556  0308  1903               	skipnz
  4557  0309  2B0B               	goto	u901
  4558  030A  2B0C               	goto	u900
  4559  030B                     u901:
  4560  030B  2B5F               	goto	l1579
  4561  030C                     u900:
  4562  030C                     l1565:
  4563  030C  01F3               	clrf	___aomod@counter
  4564  030D  0AF3               	incf	___aomod@counter,f
  4565  030E  2B1B               	goto	l1571
  4566  030F                     l1567:
  4567  030F  35A0               	lslf	___aomod@divisor,f
  4568  0310  0DA1               	rlf	___aomod@divisor+1,f
  4569  0311  0DA2               	rlf	___aomod@divisor+2,f
  4570  0312  0DA3               	rlf	___aomod@divisor+3,f
  4571  0313  0DA4               	rlf	___aomod@divisor+4,f
  4572  0314  0DA5               	rlf	___aomod@divisor+5,f
  4573  0315  0DA6               	rlf	___aomod@divisor+6,f
  4574  0316  0DA7               	rlf	___aomod@divisor+7,f
  4575  0317                     l1569:
  4576  0317  3001               	movlw	1
  4577  0318  00F2               	movwf	??___aomod
  4578  0319  0872               	movf	??___aomod,w
  4579  031A  07F3               	addwf	___aomod@counter,f
  4580  031B                     l1571:
  4581  031B  1FA7               	btfss	___aomod@divisor+7,7
  4582  031C  2B1E               	goto	u911
  4583  031D  2B1F               	goto	u910
  4584  031E                     u911:
  4585  031E  2B0F               	goto	l1567
  4586  031F                     u910:
  4587  031F                     l1573:
  4588  031F  0827               	movf	___aomod@divisor+7,w
  4589  0320  022F               	subwf	___aomod@dividend+7,w
  4590  0321  1D03               	skipz
  4591  0322  2B3D               	goto	u925
  4592  0323  0826               	movf	___aomod@divisor+6,w
  4593  0324  022E               	subwf	___aomod@dividend+6,w
  4594  0325  1D03               	skipz
  4595  0326  2B3D               	goto	u925
  4596  0327  0825               	movf	___aomod@divisor+5,w
  4597  0328  022D               	subwf	___aomod@dividend+5,w
  4598  0329  1D03               	skipz
  4599  032A  2B3D               	goto	u925
  4600  032B  0824               	movf	___aomod@divisor+4,w
  4601  032C  022C               	subwf	___aomod@dividend+4,w
  4602  032D  1D03               	skipz
  4603  032E  2B3D               	goto	u925
  4604  032F  0823               	movf	___aomod@divisor+3,w
  4605  0330  022B               	subwf	___aomod@dividend+3,w
  4606  0331  1D03               	skipz
  4607  0332  2B3D               	goto	u925
  4608  0333  0822               	movf	___aomod@divisor+2,w
  4609  0334  022A               	subwf	___aomod@dividend+2,w
  4610  0335  1D03               	skipz
  4611  0336  2B3D               	goto	u925
  4612  0337  0821               	movf	___aomod@divisor+1,w
  4613  0338  0229               	subwf	___aomod@dividend+1,w
  4614  0339  1D03               	skipz
  4615  033A  2B3D               	goto	u925
  4616  033B  0820               	movf	___aomod@divisor,w
  4617  033C  0228               	subwf	___aomod@dividend,w
  4618  033D                     u925:
  4619  033D  1C03               	skipc
  4620  033E  2B40               	goto	u921
  4621  033F  2B41               	goto	u920
  4622  0340                     u921:
  4623  0340  2B51               	goto	l1577
  4624  0341                     u920:
  4625  0341                     l1575:
  4626  0341  0820               	movf	___aomod@divisor,w
  4627  0342  02A8               	subwf	___aomod@dividend,f
  4628  0343  0821               	movf	___aomod@divisor+1,w
  4629  0344  3BA9               	subwfb	___aomod@dividend+1,f
  4630  0345  0822               	movf	___aomod@divisor+2,w
  4631  0346  3BAA               	subwfb	___aomod@dividend+2,f
  4632  0347  0823               	movf	___aomod@divisor+3,w
  4633  0348  3BAB               	subwfb	___aomod@dividend+3,f
  4634  0349  0824               	movf	___aomod@divisor+4,w
  4635  034A  3BAC               	subwfb	___aomod@dividend+4,f
  4636  034B  0825               	movf	___aomod@divisor+5,w
  4637  034C  3BAD               	subwfb	___aomod@dividend+5,f
  4638  034D  0826               	movf	___aomod@divisor+6,w
  4639  034E  3BAE               	subwfb	___aomod@dividend+6,f
  4640  034F  0827               	movf	___aomod@divisor+7,w
  4641  0350  3BAF               	subwfb	___aomod@dividend+7,f
  4642  0351                     l1577:
  4643  0351  36A7               	lsrf	___aomod@divisor+7,f
  4644  0352  0CA6               	rrf	___aomod@divisor+6,f
  4645  0353  0CA5               	rrf	___aomod@divisor+5,f
  4646  0354  0CA4               	rrf	___aomod@divisor+4,f
  4647  0355  0CA3               	rrf	___aomod@divisor+3,f
  4648  0356  0CA2               	rrf	___aomod@divisor+2,f
  4649  0357  0CA1               	rrf	___aomod@divisor+1,f
  4650  0358  0CA0               	rrf	___aomod@divisor,f
  4651  0359  3001               	movlw	1
  4652  035A  02F3               	subwf	___aomod@counter,f
  4653  035B  1D03               	btfss	3,2
  4654  035C  2B5E               	goto	u931
  4655  035D  2B5F               	goto	u930
  4656  035E                     u931:
  4657  035E  2B1F               	goto	l1573
  4658  035F                     u930:
  4659  035F                     l1579:
  4660  035F  0874               	movf	___aomod@sign,w
  4661  0360  1903               	btfsc	3,2
  4662  0361  2B63               	goto	u941
  4663  0362  2B64               	goto	u940
  4664  0363                     u941:
  4665  0363  2B82               	goto	l527
  4666  0364                     u940:
  4667  0364                     l1581:
  4668  0364  09A8               	comf	___aomod@dividend,f
  4669  0365  09A9               	comf	___aomod@dividend+1,f
  4670  0366  09AA               	comf	___aomod@dividend+2,f
  4671  0367  09AB               	comf	___aomod@dividend+3,f
  4672  0368  09AC               	comf	___aomod@dividend+4,f
  4673  0369  09AD               	comf	___aomod@dividend+5,f
  4674  036A  09AE               	comf	___aomod@dividend+6,f
  4675  036B  09AF               	comf	___aomod@dividend+7,f
  4676  036C  0AA8               	incf	___aomod@dividend,f
  4677  036D  1D03               	skipz
  4678  036E  2B82               	goto	u95lld
  4679  036F  0AA9               	incf	___aomod@dividend+1,f
  4680  0370  1D03               	skipz
  4681  0371  2B82               	goto	u95lld
  4682  0372  0AAA               	incf	___aomod@dividend+2,f
  4683  0373  1D03               	skipz
  4684  0374  2B82               	goto	u95lld
  4685  0375  0AAB               	incf	___aomod@dividend+3,f
  4686  0376  1D03               	skipz
  4687  0377  2B82               	goto	u95lld
  4688  0378  0AAC               	incf	___aomod@dividend+4,f
  4689  0379  1D03               	skipz
  4690  037A  2B82               	goto	u95lld
  4691  037B  0AAD               	incf	___aomod@dividend+5,f
  4692  037C  1D03               	skipz
  4693  037D  2B82               	goto	u95lld
  4694  037E  0AAE               	incf	___aomod@dividend+6,f
  4695  037F  1D03               	skipz
  4696  0380  2B82               	goto	u95lld
  4697  0381  0AAF               	incf	___aomod@dividend+7,f
  4698  0382                     u95lld:
  4699  0382                     l527:
  4700  0382  0140               	movlb	0	; select bank0
  4701  0383  0828               	movf	___aomod@dividend,w
  4702  0384  00A0               	movwf	?___aomod
  4703  0385  0829               	movf	___aomod@dividend+1,w
  4704  0386  00A1               	movwf	?___aomod+1
  4705  0387  082A               	movf	___aomod@dividend+2,w
  4706  0388  00A2               	movwf	?___aomod+2
  4707  0389  082B               	movf	___aomod@dividend+3,w
  4708  038A  00A3               	movwf	?___aomod+3
  4709  038B  082C               	movf	___aomod@dividend+4,w
  4710  038C  00A4               	movwf	?___aomod+4
  4711  038D  082D               	movf	___aomod@dividend+5,w
  4712  038E  00A5               	movwf	?___aomod+5
  4713  038F  082E               	movf	___aomod@dividend+6,w
  4714  0390  00A6               	movwf	?___aomod+6
  4715  0391  082F               	movf	___aomod@dividend+7,w
  4716  0392  00A7               	movwf	?___aomod+7
  4717  0393                     l528:
  4718  0393  0008               	return
  4719  0394                     __end_of___aomod:
  4720                           
  4721                           	psect	text12
  4722  01A6                     __ptext12:	
  4723 ;; *************** function ___aodiv *****************
  4724 ;; Defined at:
  4725 ;;		line 7 in file "/opt/microchip/xc8/v2.35/pic/sources/c99/common/aodiv.c"
  4726 ;; Parameters:    Size  Location     Type
  4727 ;;  divisor         8    0[BANK0 ] long long 
  4728 ;;  dividend        8    8[BANK0 ] long long 
  4729 ;; Auto vars:     Size  Location     Type
  4730 ;;  quotient        8   18[BANK0 ] long long 
  4731 ;;  sign            1   17[BANK0 ] unsigned char 
  4732 ;;  counter         1   16[BANK0 ] unsigned char 
  4733 ;; Return value:  Size  Location     Type
  4734 ;;                  8    0[BANK0 ] long long 
  4735 ;; Registers used:
  4736 ;;		wreg, fsr1l, fsr1h, status,2, status,0
  4737 ;; Tracked objects:
  4738 ;;		On entry : 0/0
  4739 ;;		On exit  : 0/0
  4740 ;;		Unchanged: 0/0
  4741 ;; Data sizes:     COMMON   BANK0   BANK1   BANK2   BANK3   BANK4   BANK5   BANK6
  4742 ;;      Params:         0      16       0       0       0       0       0       0
  4743 ;;      Locals:         0      10       0       0       0       0       0       0
  4744 ;;      Temps:          1       0       0       0       0       0       0       0
  4745 ;;      Totals:         1      26       0       0       0       0       0       0
  4746 ;;Total ram usage:       27 bytes
  4747 ;; Hardware stack levels used: 1
  4748 ;; Hardware stack levels required when called: 4
  4749 ;; This function calls:
  4750 ;;		Nothing
  4751 ;; This function is called by:
  4752 ;;		_dtoa
  4753 ;; This function uses a non-reentrant model
  4754 ;;
  4755                           
  4756  01A6                     ___aodiv:	
  4757                           ;psect for function ___aodiv
  4758                           
  4759  01A6                     l1515:	
  4760                           ;incstack = 0
  4761                           ; Regs used in ___aodiv: [wreg+fsr1l+fsr1h+status,2+status,0]
  4762                           
  4763  01A6  0140               	movlb	0	; select bank0
  4764  01A7  01B1               	clrf	___aodiv@sign
  4765  01A8                     l1517:
  4766  01A8  3020               	movlw	low ___aodiv@divisor
  4767  01A9  0086               	movwf	6
  4768  01AA  3000               	movlw	high ___aodiv@divisor
  4769  01AB  0087               	movwf	7
  4770  01AC  3F47               	moviw [7]fsr1
  4771  01AD  00F2               	movwf	??___aodiv
  4772  01AE  1FF2               	btfss	??___aodiv,7
  4773  01AF  29B1               	goto	u751
  4774  01B0  29B2               	goto	u750
  4775  01B1                     u751:
  4776  01B1  29D4               	goto	l1521
  4777  01B2                     u750:
  4778  01B2                     l1519:
  4779  01B2  0140               	movlb	0	; select bank0
  4780  01B3  09A0               	comf	___aodiv@divisor,f
  4781  01B4  09A1               	comf	___aodiv@divisor+1,f
  4782  01B5  09A2               	comf	___aodiv@divisor+2,f
  4783  01B6  09A3               	comf	___aodiv@divisor+3,f
  4784  01B7  09A4               	comf	___aodiv@divisor+4,f
  4785  01B8  09A5               	comf	___aodiv@divisor+5,f
  4786  01B9  09A6               	comf	___aodiv@divisor+6,f
  4787  01BA  09A7               	comf	___aodiv@divisor+7,f
  4788  01BB  0AA0               	incf	___aodiv@divisor,f
  4789  01BC  1D03               	skipz
  4790  01BD  29D1               	goto	u76lld
  4791  01BE  0AA1               	incf	___aodiv@divisor+1,f
  4792  01BF  1D03               	skipz
  4793  01C0  29D1               	goto	u76lld
  4794  01C1  0AA2               	incf	___aodiv@divisor+2,f
  4795  01C2  1D03               	skipz
  4796  01C3  29D1               	goto	u76lld
  4797  01C4  0AA3               	incf	___aodiv@divisor+3,f
  4798  01C5  1D03               	skipz
  4799  01C6  29D1               	goto	u76lld
  4800  01C7  0AA4               	incf	___aodiv@divisor+4,f
  4801  01C8  1D03               	skipz
  4802  01C9  29D1               	goto	u76lld
  4803  01CA  0AA5               	incf	___aodiv@divisor+5,f
  4804  01CB  1D03               	skipz
  4805  01CC  29D1               	goto	u76lld
  4806  01CD  0AA6               	incf	___aodiv@divisor+6,f
  4807  01CE  1D03               	skipz
  4808  01CF  29D1               	goto	u76lld
  4809  01D0  0AA7               	incf	___aodiv@divisor+7,f
  4810  01D1                     u76lld:
  4811  01D1  0140               	movlb	0	; select bank0
  4812  01D2  01B1               	clrf	___aodiv@sign
  4813  01D3  0AB1               	incf	___aodiv@sign,f
  4814  01D4                     l1521:
  4815  01D4  3028               	movlw	low ___aodiv@dividend
  4816  01D5  0086               	movwf	6
  4817  01D6  3000               	movlw	high ___aodiv@dividend
  4818  01D7  0087               	movwf	7
  4819  01D8  3F47               	moviw [7]fsr1
  4820  01D9  00F2               	movwf	??___aodiv
  4821  01DA  1FF2               	btfss	??___aodiv,7
  4822  01DB  29DD               	goto	u771
  4823  01DC  29DE               	goto	u770
  4824  01DD                     u771:
  4825  01DD  2A02               	goto	l1527
  4826  01DE                     u770:
  4827  01DE                     l1523:
  4828  01DE  0140               	movlb	0	; select bank0
  4829  01DF  09A8               	comf	___aodiv@dividend,f
  4830  01E0  09A9               	comf	___aodiv@dividend+1,f
  4831  01E1  09AA               	comf	___aodiv@dividend+2,f
  4832  01E2  09AB               	comf	___aodiv@dividend+3,f
  4833  01E3  09AC               	comf	___aodiv@dividend+4,f
  4834  01E4  09AD               	comf	___aodiv@dividend+5,f
  4835  01E5  09AE               	comf	___aodiv@dividend+6,f
  4836  01E6  09AF               	comf	___aodiv@dividend+7,f
  4837  01E7  0AA8               	incf	___aodiv@dividend,f
  4838  01E8  1D03               	skipz
  4839  01E9  29FD               	goto	u78lld
  4840  01EA  0AA9               	incf	___aodiv@dividend+1,f
  4841  01EB  1D03               	skipz
  4842  01EC  29FD               	goto	u78lld
  4843  01ED  0AAA               	incf	___aodiv@dividend+2,f
  4844  01EE  1D03               	skipz
  4845  01EF  29FD               	goto	u78lld
  4846  01F0  0AAB               	incf	___aodiv@dividend+3,f
  4847  01F1  1D03               	skipz
  4848  01F2  29FD               	goto	u78lld
  4849  01F3  0AAC               	incf	___aodiv@dividend+4,f
  4850  01F4  1D03               	skipz
  4851  01F5  29FD               	goto	u78lld
  4852  01F6  0AAD               	incf	___aodiv@dividend+5,f
  4853  01F7  1D03               	skipz
  4854  01F8  29FD               	goto	u78lld
  4855  01F9  0AAE               	incf	___aodiv@dividend+6,f
  4856  01FA  1D03               	skipz
  4857  01FB  29FD               	goto	u78lld
  4858  01FC  0AAF               	incf	___aodiv@dividend+7,f
  4859  01FD                     u78lld:
  4860  01FD                     l1525:
  4861  01FD  3001               	movlw	1
  4862  01FE  00F2               	movwf	??___aodiv
  4863  01FF  0872               	movf	??___aodiv,w
  4864  0200  0140               	movlb	0	; select bank0
  4865  0201  06B1               	xorwf	___aodiv@sign,f
  4866  0202                     l1527:
  4867  0202  3032               	movlw	low ___aodiv@quotient
  4868  0203  0086               	movwf	6
  4869  0204  3000               	movlw	high ___aodiv@quotient
  4870  0205  0087               	movwf	7
  4871  0206  3008               	movlw	8
  4872  0207  00F2               	movwf	??___aodiv
  4873  0208  3000               	movlw	0
  4874  0209                     u790:
  4875  0209  001E               	movwi fsr1++
  4876  020A  0BF2               	decfsz	??___aodiv,f
  4877  020B  2A09               	goto	u790
  4878  020C                     l1529:
  4879  020C  0140               	movlb	0	; select bank0
  4880  020D  0820               	movf	___aodiv@divisor,w
  4881  020E  0421               	iorwf	___aodiv@divisor+1,w
  4882  020F  0422               	iorwf	___aodiv@divisor+2,w
  4883  0210  0423               	iorwf	___aodiv@divisor+3,w
  4884  0211  0424               	iorwf	___aodiv@divisor+4,w
  4885  0212  0425               	iorwf	___aodiv@divisor+5,w
  4886  0213  0426               	iorwf	___aodiv@divisor+6,w
  4887  0214  0427               	iorwf	___aodiv@divisor+7,w
  4888  0215  1903               	skipnz
  4889  0216  2A18               	goto	u801
  4890  0217  2A19               	goto	u800
  4891  0218                     u801:
  4892  0218  2A75               	goto	l1549
  4893  0219                     u800:
  4894  0219                     l1531:
  4895  0219  01B0               	clrf	___aodiv@counter
  4896  021A  0AB0               	incf	___aodiv@counter,f
  4897  021B  2A28               	goto	l1537
  4898  021C                     l1533:
  4899  021C  35A0               	lslf	___aodiv@divisor,f
  4900  021D  0DA1               	rlf	___aodiv@divisor+1,f
  4901  021E  0DA2               	rlf	___aodiv@divisor+2,f
  4902  021F  0DA3               	rlf	___aodiv@divisor+3,f
  4903  0220  0DA4               	rlf	___aodiv@divisor+4,f
  4904  0221  0DA5               	rlf	___aodiv@divisor+5,f
  4905  0222  0DA6               	rlf	___aodiv@divisor+6,f
  4906  0223  0DA7               	rlf	___aodiv@divisor+7,f
  4907  0224                     l1535:
  4908  0224  3001               	movlw	1
  4909  0225  00F2               	movwf	??___aodiv
  4910  0226  0872               	movf	??___aodiv,w
  4911  0227  07B0               	addwf	___aodiv@counter,f
  4912  0228                     l1537:
  4913  0228  1FA7               	btfss	___aodiv@divisor+7,7
  4914  0229  2A2B               	goto	u811
  4915  022A  2A2C               	goto	u810
  4916  022B                     u811:
  4917  022B  2A1C               	goto	l1533
  4918  022C                     u810:
  4919  022C                     l1539:
  4920  022C  35B2               	lslf	___aodiv@quotient,f
  4921  022D  0DB3               	rlf	___aodiv@quotient+1,f
  4922  022E  0DB4               	rlf	___aodiv@quotient+2,f
  4923  022F  0DB5               	rlf	___aodiv@quotient+3,f
  4924  0230  0DB6               	rlf	___aodiv@quotient+4,f
  4925  0231  0DB7               	rlf	___aodiv@quotient+5,f
  4926  0232  0DB8               	rlf	___aodiv@quotient+6,f
  4927  0233  0DB9               	rlf	___aodiv@quotient+7,f
  4928  0234                     l1541:
  4929  0234  0827               	movf	___aodiv@divisor+7,w
  4930  0235  022F               	subwf	___aodiv@dividend+7,w
  4931  0236  1D03               	skipz
  4932  0237  2A52               	goto	u825
  4933  0238  0826               	movf	___aodiv@divisor+6,w
  4934  0239  022E               	subwf	___aodiv@dividend+6,w
  4935  023A  1D03               	skipz
  4936  023B  2A52               	goto	u825
  4937  023C  0825               	movf	___aodiv@divisor+5,w
  4938  023D  022D               	subwf	___aodiv@dividend+5,w
  4939  023E  1D03               	skipz
  4940  023F  2A52               	goto	u825
  4941  0240  0824               	movf	___aodiv@divisor+4,w
  4942  0241  022C               	subwf	___aodiv@dividend+4,w
  4943  0242  1D03               	skipz
  4944  0243  2A52               	goto	u825
  4945  0244  0823               	movf	___aodiv@divisor+3,w
  4946  0245  022B               	subwf	___aodiv@dividend+3,w
  4947  0246  1D03               	skipz
  4948  0247  2A52               	goto	u825
  4949  0248  0822               	movf	___aodiv@divisor+2,w
  4950  0249  022A               	subwf	___aodiv@dividend+2,w
  4951  024A  1D03               	skipz
  4952  024B  2A52               	goto	u825
  4953  024C  0821               	movf	___aodiv@divisor+1,w
  4954  024D  0229               	subwf	___aodiv@dividend+1,w
  4955  024E  1D03               	skipz
  4956  024F  2A52               	goto	u825
  4957  0250  0820               	movf	___aodiv@divisor,w
  4958  0251  0228               	subwf	___aodiv@dividend,w
  4959  0252                     u825:
  4960  0252  1C03               	skipc
  4961  0253  2A55               	goto	u821
  4962  0254  2A56               	goto	u820
  4963  0255                     u821:
  4964  0255  2A67               	goto	l1547
  4965  0256                     u820:
  4966  0256                     l1543:
  4967  0256  0820               	movf	___aodiv@divisor,w
  4968  0257  02A8               	subwf	___aodiv@dividend,f
  4969  0258  0821               	movf	___aodiv@divisor+1,w
  4970  0259  3BA9               	subwfb	___aodiv@dividend+1,f
  4971  025A  0822               	movf	___aodiv@divisor+2,w
  4972  025B  3BAA               	subwfb	___aodiv@dividend+2,f
  4973  025C  0823               	movf	___aodiv@divisor+3,w
  4974  025D  3BAB               	subwfb	___aodiv@dividend+3,f
  4975  025E  0824               	movf	___aodiv@divisor+4,w
  4976  025F  3BAC               	subwfb	___aodiv@dividend+4,f
  4977  0260  0825               	movf	___aodiv@divisor+5,w
  4978  0261  3BAD               	subwfb	___aodiv@dividend+5,f
  4979  0262  0826               	movf	___aodiv@divisor+6,w
  4980  0263  3BAE               	subwfb	___aodiv@dividend+6,f
  4981  0264  0827               	movf	___aodiv@divisor+7,w
  4982  0265  3BAF               	subwfb	___aodiv@dividend+7,f
  4983  0266                     l1545:
  4984  0266  1432               	bsf	___aodiv@quotient,0
  4985  0267                     l1547:
  4986  0267  36A7               	lsrf	___aodiv@divisor+7,f
  4987  0268  0CA6               	rrf	___aodiv@divisor+6,f
  4988  0269  0CA5               	rrf	___aodiv@divisor+5,f
  4989  026A  0CA4               	rrf	___aodiv@divisor+4,f
  4990  026B  0CA3               	rrf	___aodiv@divisor+3,f
  4991  026C  0CA2               	rrf	___aodiv@divisor+2,f
  4992  026D  0CA1               	rrf	___aodiv@divisor+1,f
  4993  026E  0CA0               	rrf	___aodiv@divisor,f
  4994  026F  3001               	movlw	1
  4995  0270  02B0               	subwf	___aodiv@counter,f
  4996  0271  1D03               	btfss	3,2
  4997  0272  2A74               	goto	u831
  4998  0273  2A75               	goto	u830
  4999  0274                     u831:
  5000  0274  2A2C               	goto	l1539
  5001  0275                     u830:
  5002  0275                     l1549:
  5003  0275  0831               	movf	___aodiv@sign,w
  5004  0276  1903               	btfsc	3,2
  5005  0277  2A79               	goto	u841
  5006  0278  2A7A               	goto	u840
  5007  0279                     u841:
  5008  0279  2A98               	goto	l514
  5009  027A                     u840:
  5010  027A                     l1551:
  5011  027A  09B2               	comf	___aodiv@quotient,f
  5012  027B  09B3               	comf	___aodiv@quotient+1,f
  5013  027C  09B4               	comf	___aodiv@quotient+2,f
  5014  027D  09B5               	comf	___aodiv@quotient+3,f
  5015  027E  09B6               	comf	___aodiv@quotient+4,f
  5016  027F  09B7               	comf	___aodiv@quotient+5,f
  5017  0280  09B8               	comf	___aodiv@quotient+6,f
  5018  0281  09B9               	comf	___aodiv@quotient+7,f
  5019  0282  0AB2               	incf	___aodiv@quotient,f
  5020  0283  1D03               	skipz
  5021  0284  2A98               	goto	u85lld
  5022  0285  0AB3               	incf	___aodiv@quotient+1,f
  5023  0286  1D03               	skipz
  5024  0287  2A98               	goto	u85lld
  5025  0288  0AB4               	incf	___aodiv@quotient+2,f
  5026  0289  1D03               	skipz
  5027  028A  2A98               	goto	u85lld
  5028  028B  0AB5               	incf	___aodiv@quotient+3,f
  5029  028C  1D03               	skipz
  5030  028D  2A98               	goto	u85lld
  5031  028E  0AB6               	incf	___aodiv@quotient+4,f
  5032  028F  1D03               	skipz
  5033  0290  2A98               	goto	u85lld
  5034  0291  0AB7               	incf	___aodiv@quotient+5,f
  5035  0292  1D03               	skipz
  5036  0293  2A98               	goto	u85lld
  5037  0294  0AB8               	incf	___aodiv@quotient+6,f
  5038  0295  1D03               	skipz
  5039  0296  2A98               	goto	u85lld
  5040  0297  0AB9               	incf	___aodiv@quotient+7,f
  5041  0298                     u85lld:
  5042  0298                     l514:
  5043  0298  0140               	movlb	0	; select bank0
  5044  0299  0832               	movf	___aodiv@quotient,w
  5045  029A  00A0               	movwf	?___aodiv
  5046  029B  0833               	movf	___aodiv@quotient+1,w
  5047  029C  00A1               	movwf	?___aodiv+1
  5048  029D  0834               	movf	___aodiv@quotient+2,w
  5049  029E  00A2               	movwf	?___aodiv+2
  5050  029F  0835               	movf	___aodiv@quotient+3,w
  5051  02A0  00A3               	movwf	?___aodiv+3
  5052  02A1  0836               	movf	___aodiv@quotient+4,w
  5053  02A2  00A4               	movwf	?___aodiv+4
  5054  02A3  0837               	movf	___aodiv@quotient+5,w
  5055  02A4  00A5               	movwf	?___aodiv+5
  5056  02A5  0838               	movf	___aodiv@quotient+6,w
  5057  02A6  00A6               	movwf	?___aodiv+6
  5058  02A7  0839               	movf	___aodiv@quotient+7,w
  5059  02A8  00A7               	movwf	?___aodiv+7
  5060  02A9                     l515:
  5061  02A9  0008               	return
  5062  02AA                     __end_of___aodiv:
  5063                           
  5064                           	psect	text13
  5065  0738                     __ptext13:	
  5066 ;; *************** function _TMR1_StopTimer *****************
  5067 ;; Defined at:
  5068 ;;		line 105 in file "mcc_generated_files/tmr1.c"
  5069 ;; Parameters:    Size  Location     Type
  5070 ;;		None
  5071 ;; Auto vars:     Size  Location     Type
  5072 ;;		None
  5073 ;; Return value:  Size  Location     Type
  5074 ;;                  1    wreg      void 
  5075 ;; Registers used:
  5076 ;;		None
  5077 ;; Tracked objects:
  5078 ;;		On entry : 0/0
  5079 ;;		On exit  : 0/0
  5080 ;;		Unchanged: 0/0
  5081 ;; Data sizes:     COMMON   BANK0   BANK1   BANK2   BANK3   BANK4   BANK5   BANK6
  5082 ;;      Params:         0       0       0       0       0       0       0       0
  5083 ;;      Locals:         0       0       0       0       0       0       0       0
  5084 ;;      Temps:          0       0       0       0       0       0       0       0
  5085 ;;      Totals:         0       0       0       0       0       0       0       0
  5086 ;;Total ram usage:        0 bytes
  5087 ;; Hardware stack levels used: 1
  5088 ;; Hardware stack levels required when called: 4
  5089 ;; This function calls:
  5090 ;;		Nothing
  5091 ;; This function is called by:
  5092 ;;		_main
  5093 ;; This function uses a non-reentrant model
  5094 ;;
  5095                           
  5096  0738                     _TMR1_StopTimer:	
  5097                           ;psect for function _TMR1_StopTimer
  5098                           
  5099  0738                     l1875:	
  5100                           ;incstack = 0
  5101                           ; Regs used in _TMR1_StopTimer: []
  5102                           
  5103                           
  5104                           ;mcc_generated_files/tmr1.c: 108:     T1CONbits.TMR1ON = 0;
  5105  0738  0144               	movlb	4	; select bank4
  5106  0739  100E               	bcf	14,0	;volatile
  5107  073A                     l111:
  5108  073A  0008               	return
  5109  073B                     __end_of_TMR1_StopTimer:
  5110                           
  5111                           	psect	text14
  5112  06A6                     __ptext14:	
  5113 ;; *************** function _Sendto_Uart *****************
  5114 ;; Defined at:
  5115 ;;		line 11 in file "main.c"
  5116 ;; Parameters:    Size  Location     Type
  5117 ;;  st_pt           1    wreg     PTR unsigned char 
  5118 ;;		 -> sendbuff(20), 
  5119 ;; Auto vars:     Size  Location     Type
  5120 ;;  st_pt           1    4[COMMON] PTR unsigned char 
  5121 ;;		 -> sendbuff(20), 
  5122 ;; Return value:  Size  Location     Type
  5123 ;;                  1    wreg      void 
  5124 ;; Registers used:
  5125 ;;		wreg, fsr1l, fsr1h, status,2, status,0, pclath, cstack
  5126 ;; Tracked objects:
  5127 ;;		On entry : 0/0
  5128 ;;		On exit  : 0/0
  5129 ;;		Unchanged: 0/0
  5130 ;; Data sizes:     COMMON   BANK0   BANK1   BANK2   BANK3   BANK4   BANK5   BANK6
  5131 ;;      Params:         0       0       0       0       0       0       0       0
  5132 ;;      Locals:         1       0       0       0       0       0       0       0
  5133 ;;      Temps:          1       0       0       0       0       0       0       0
  5134 ;;      Totals:         2       0       0       0       0       0       0       0
  5135 ;;Total ram usage:        2 bytes
  5136 ;; Hardware stack levels used: 1
  5137 ;; Hardware stack levels required when called: 5
  5138 ;; This function calls:
  5139 ;;		_EUSART1_Write
  5140 ;; This function is called by:
  5141 ;;		_main
  5142 ;; This function uses a non-reentrant model
  5143 ;;
  5144                           
  5145  06A6                     _Sendto_Uart:	
  5146                           ;psect for function _Sendto_Uart
  5147                           
  5148                           
  5149                           ;incstack = 0
  5150                           ; Regs used in _Sendto_Uart: [wreg+fsr1l+fsr1h+status,2+status,0+pclath+cstack]
  5151                           ;Sendto_Uart@st_pt stored from wreg
  5152  06A6  00F4               	movwf	Sendto_Uart@st_pt
  5153  06A7                     l1877:
  5154                           
  5155                           ;main.c: 11: void Sendto_Uart(uint8_t* st_pt);main.c: 12: {;main.c: 13:     while (*st_p
      +                          t)
  5156  06A7  2EB3               	goto	l1883
  5157  06A8                     l1879:
  5158                           
  5159                           ;main.c: 14:         EUSART1_Write(*st_pt++);
  5160  06A8  0874               	movf	Sendto_Uart@st_pt,w
  5161  06A9  0086               	movwf	6
  5162  06AA  0187               	clrf	7
  5163  06AB  0801               	movf	1,w
  5164  06AC  3186  26E8  3186   	fcall	_EUSART1_Write
  5165  06AF                     l1881:
  5166  06AF  3001               	movlw	1
  5167  06B0  00F3               	movwf	??_Sendto_Uart
  5168  06B1  0873               	movf	??_Sendto_Uart,w
  5169  06B2  07F4               	addwf	Sendto_Uart@st_pt,f
  5170  06B3                     l1883:
  5171                           
  5172                           ;main.c: 13:     while (*st_pt)
  5173  06B3  0874               	movf	Sendto_Uart@st_pt,w
  5174  06B4  0086               	movwf	6
  5175  06B5  0187               	clrf	7
  5176  06B6  0801               	movf	1,w
  5177  06B7  1D03               	btfss	3,2
  5178  06B8  2EBA               	goto	u1261
  5179  06B9  2EBB               	goto	u1260
  5180  06BA                     u1261:
  5181  06BA  2EA8               	goto	l1879
  5182  06BB                     u1260:
  5183  06BB                     l249:
  5184  06BB  0008               	return
  5185  06BC                     __end_of_Sendto_Uart:
  5186                           
  5187                           	psect	text15
  5188  06E8                     __ptext15:	
  5189 ;; *************** function _EUSART1_Write *****************
  5190 ;; Defined at:
  5191 ;;		line 132 in file "mcc_generated_files/eusart1.c"
  5192 ;; Parameters:    Size  Location     Type
  5193 ;;  txData          1    wreg     unsigned char 
  5194 ;; Auto vars:     Size  Location     Type
  5195 ;;  txData          1    2[COMMON] unsigned char 
  5196 ;; Return value:  Size  Location     Type
  5197 ;;                  1    wreg      void 
  5198 ;; Registers used:
  5199 ;;		wreg
  5200 ;; Tracked objects:
  5201 ;;		On entry : 0/0
  5202 ;;		On exit  : 0/0
  5203 ;;		Unchanged: 0/0
  5204 ;; Data sizes:     COMMON   BANK0   BANK1   BANK2   BANK3   BANK4   BANK5   BANK6
  5205 ;;      Params:         0       0       0       0       0       0       0       0
  5206 ;;      Locals:         1       0       0       0       0       0       0       0
  5207 ;;      Temps:          0       0       0       0       0       0       0       0
  5208 ;;      Totals:         1       0       0       0       0       0       0       0
  5209 ;;Total ram usage:        1 bytes
  5210 ;; Hardware stack levels used: 1
  5211 ;; Hardware stack levels required when called: 4
  5212 ;; This function calls:
  5213 ;;		Nothing
  5214 ;; This function is called by:
  5215 ;;		_Sendto_Uart
  5216 ;;		_main
  5217 ;; This function uses a non-reentrant model
  5218 ;;
  5219                           
  5220  06E8                     _EUSART1_Write:	
  5221                           ;psect for function _EUSART1_Write
  5222                           
  5223                           
  5224                           ;incstack = 0
  5225                           ; Regs used in _EUSART1_Write: [wreg]
  5226                           ;EUSART1_Write@txData stored from wreg
  5227  06E8  00F2               	movwf	EUSART1_Write@txData
  5228  06E9                     l1829:
  5229  06E9                     l325:	
  5230                           ;mcc_generated_files/eusart1.c: 135:     {;mcc_generated_files/eusart1.c: 136:     }
  5231                           
  5232                           
  5233                           ;mcc_generated_files/eusart1.c: 134:     while(0 == PIR3bits.TX1IF)
  5234  06E9  014E               	movlb	14	; select bank14
  5235  06EA  1E0F               	btfss	15,4	;volatile
  5236  06EB  2EED               	goto	u1221
  5237  06EC  2EEE               	goto	u1220
  5238  06ED                     u1221:
  5239  06ED  2EE9               	goto	l325
  5240  06EE                     u1220:
  5241  06EE                     l1831:
  5242                           
  5243                           ;mcc_generated_files/eusart1.c: 138:     TX1REG = txData;
  5244  06EE  0872               	movf	EUSART1_Write@txData,w
  5245  06EF  0142               	movlb	2	; select bank2
  5246  06F0  009A               	movwf	26	;volatile
  5247  06F1                     l328:
  5248  06F1  0008               	return
  5249  06F2                     __end_of_EUSART1_Write:
  5250                           
  5251                           	psect	text16
  5252  06CD                     __ptext16:	
  5253 ;; *************** function _SYSTEM_Initialize *****************
  5254 ;; Defined at:
  5255 ;;		line 50 in file "mcc_generated_files/mcc.c"
  5256 ;; Parameters:    Size  Location     Type
  5257 ;;		None
  5258 ;; Auto vars:     Size  Location     Type
  5259 ;;		None
  5260 ;; Return value:  Size  Location     Type
  5261 ;;                  1    wreg      void 
  5262 ;; Registers used:
  5263 ;;		wreg, status,2, status,0, pclath, cstack
  5264 ;; Tracked objects:
  5265 ;;		On entry : 0/0
  5266 ;;		On exit  : 0/0
  5267 ;;		Unchanged: 0/0
  5268 ;; Data sizes:     COMMON   BANK0   BANK1   BANK2   BANK3   BANK4   BANK5   BANK6
  5269 ;;      Params:         0       0       0       0       0       0       0       0
  5270 ;;      Locals:         0       0       0       0       0       0       0       0
  5271 ;;      Temps:          0       0       0       0       0       0       0       0
  5272 ;;      Totals:         0       0       0       0       0       0       0       0
  5273 ;;Total ram usage:        0 bytes
  5274 ;; Hardware stack levels used: 1
  5275 ;; Hardware stack levels required when called: 6
  5276 ;; This function calls:
  5277 ;;		_EUSART1_Initialize
  5278 ;;		_OSCILLATOR_Initialize
  5279 ;;		_PIN_MANAGER_Initialize
  5280 ;;		_PMD_Initialize
  5281 ;;		_TMR1_Initialize
  5282 ;; This function is called by:
  5283 ;;		_main
  5284 ;; This function uses a non-reentrant model
  5285 ;;
  5286                           
  5287  06CD                     _SYSTEM_Initialize:	
  5288                           ;psect for function _SYSTEM_Initialize
  5289                           
  5290  06CD                     l1847:	
  5291                           ;incstack = 0
  5292                           ; Regs used in _SYSTEM_Initialize: [wreg+status,2+status,0+pclath+cstack]
  5293                           
  5294                           
  5295                           ;mcc_generated_files/mcc.c: 52:     PMD_Initialize();
  5296  06CD  3187  2705  3186   	fcall	_PMD_Initialize
  5297  06D0                     l1849:
  5298                           
  5299                           ;mcc_generated_files/mcc.c: 53:     PIN_MANAGER_Initialize();
  5300  06D0  3185  254C  3186   	fcall	_PIN_MANAGER_Initialize
  5301  06D3                     l1851:
  5302                           
  5303                           ;mcc_generated_files/mcc.c: 54:     OSCILLATOR_Initialize();
  5304  06D3  3186  26F2  3186   	fcall	_OSCILLATOR_Initialize
  5305  06D6                     l1853:
  5306                           
  5307                           ;mcc_generated_files/mcc.c: 55:     TMR1_Initialize();
  5308  06D6  3186  2652  3186   	fcall	_TMR1_Initialize
  5309  06D9                     l1855:
  5310                           
  5311                           ;mcc_generated_files/mcc.c: 56:     EUSART1_Initialize();
  5312  06D9  3186  2630  3186   	fcall	_EUSART1_Initialize
  5313  06DC                     l37:
  5314  06DC  0008               	return
  5315  06DD                     __end_of_SYSTEM_Initialize:
  5316                           
  5317                           	psect	text17
  5318  0652                     __ptext17:	
  5319 ;; *************** function _TMR1_Initialize *****************
  5320 ;; Defined at:
  5321 ;;		line 64 in file "mcc_generated_files/tmr1.c"
  5322 ;; Parameters:    Size  Location     Type
  5323 ;;		None
  5324 ;; Auto vars:     Size  Location     Type
  5325 ;;		None
  5326 ;; Return value:  Size  Location     Type
  5327 ;;                  1    wreg      void 
  5328 ;; Registers used:
  5329 ;;		wreg, status,2, status,0, pclath, cstack
  5330 ;; Tracked objects:
  5331 ;;		On entry : 0/0
  5332 ;;		On exit  : 0/0
  5333 ;;		Unchanged: 0/0
  5334 ;; Data sizes:     COMMON   BANK0   BANK1   BANK2   BANK3   BANK4   BANK5   BANK6
  5335 ;;      Params:         0       0       0       0       0       0       0       0
  5336 ;;      Locals:         0       0       0       0       0       0       0       0
  5337 ;;      Temps:          0       0       0       0       0       0       0       0
  5338 ;;      Totals:         0       0       0       0       0       0       0       0
  5339 ;;Total ram usage:        0 bytes
  5340 ;; Hardware stack levels used: 1
  5341 ;; Hardware stack levels required when called: 5
  5342 ;; This function calls:
  5343 ;;		_TMR1_SetInterruptHandler
  5344 ;; This function is called by:
  5345 ;;		_SYSTEM_Initialize
  5346 ;; This function uses a non-reentrant model
  5347 ;;
  5348                           
  5349  0652                     _TMR1_Initialize:	
  5350                           ;psect for function _TMR1_Initialize
  5351                           
  5352  0652                     l1777:	
  5353                           ;incstack = 0
  5354                           ; Regs used in _TMR1_Initialize: [wreg+status,2+status,0+pclath+cstack]
  5355                           
  5356                           
  5357                           ;mcc_generated_files/tmr1.c: 69:     T1GCON = 0x00;
  5358  0652  0144               	movlb	4	; select bank4
  5359  0653  018F               	clrf	15	;volatile
  5360                           
  5361                           ;mcc_generated_files/tmr1.c: 72:     T1GATE = 0x00;
  5362  0654  0190               	clrf	16	;volatile
  5363  0655                     l1779:
  5364                           
  5365                           ;mcc_generated_files/tmr1.c: 75:     T1CLK = 0x02;
  5366  0655  3002               	movlw	2
  5367  0656  0091               	movwf	17	;volatile
  5368  0657                     l1781:
  5369                           
  5370                           ;mcc_generated_files/tmr1.c: 78:     TMR1H = 0x75;
  5371  0657  3075               	movlw	117
  5372  0658  008D               	movwf	13	;volatile
  5373  0659                     l1783:
  5374                           
  5375                           ;mcc_generated_files/tmr1.c: 81:     TMR1L = 0x18;
  5376  0659  3018               	movlw	24
  5377  065A  008C               	movwf	12	;volatile
  5378  065B                     l1785:
  5379                           
  5380                           ;mcc_generated_files/tmr1.c: 84:     PIR4bits.TMR1IF = 0;
  5381  065B  014E               	movlb	14	; select bank14
  5382  065C  1010               	bcf	16,0	;volatile
  5383  065D                     l1787:
  5384                           
  5385                           ;mcc_generated_files/tmr1.c: 87:     timer1ReloadVal=(uint16_t)((TMR1H << 8) | TMR1L);
  5386  065D  0144               	movlb	4	; select bank4
  5387  065E  080D               	movf	13,w	;volatile
  5388  065F  0141               	movlb	1	; select bank1
  5389  0660  00EE               	movwf	(_timer1ReloadVal+1)^(0+128)	;volatile
  5390  0661  0144               	movlb	4	; select bank4
  5391  0662  080C               	movf	12,w	;volatile
  5392  0663  0141               	movlb	1	; select bank1
  5393  0664  00ED               	movwf	_timer1ReloadVal^(0+128)	;volatile
  5394  0665                     l1789:
  5395                           
  5396                           ;mcc_generated_files/tmr1.c: 90:     PIE4bits.TMR1IE = 1;
  5397  0665  014E               	movlb	14	; select bank14
  5398  0666  141A               	bsf	26,0	;volatile
  5399  0667                     l1791:
  5400                           
  5401                           ;mcc_generated_files/tmr1.c: 93:     TMR1_SetInterruptHandler(TMR1_DefaultInterruptHandl
      +                          er);
  5402  0667  3000               	movlw	0
  5403  0668  00F2               	movwf	TMR1_SetInterruptHandler@InterruptHandler
  5404  0669  3000               	movlw	0
  5405  066A  00F3               	movwf	TMR1_SetInterruptHandler@InterruptHandler+1
  5406  066B  3187  271A  3186   	fcall	_TMR1_SetInterruptHandler
  5407  066E                     l1793:
  5408                           
  5409                           ;mcc_generated_files/tmr1.c: 96:     T1CON = 0x07;
  5410  066E  3007               	movlw	7
  5411  066F  0144               	movlb	4	; select bank4
  5412  0670  008E               	movwf	14	;volatile
  5413  0671                     l105:
  5414  0671  0008               	return
  5415  0672                     __end_of_TMR1_Initialize:
  5416                           
  5417                           	psect	text18
  5418  071A                     __ptext18:	
  5419 ;; *************** function _TMR1_SetInterruptHandler *****************
  5420 ;; Defined at:
  5421 ;;		line 193 in file "mcc_generated_files/tmr1.c"
  5422 ;; Parameters:    Size  Location     Type
  5423 ;;  InterruptHan    2    2[COMMON] PTR FTN()void 
  5424 ;;		 -> TMR1_DefaultInterruptHandler(1), 
  5425 ;; Auto vars:     Size  Location     Type
  5426 ;;		None
  5427 ;; Return value:  Size  Location     Type
  5428 ;;                  1    wreg      void 
  5429 ;; Registers used:
  5430 ;;		wreg
  5431 ;; Tracked objects:
  5432 ;;		On entry : 0/0
  5433 ;;		On exit  : 0/0
  5434 ;;		Unchanged: 0/0
  5435 ;; Data sizes:     COMMON   BANK0   BANK1   BANK2   BANK3   BANK4   BANK5   BANK6
  5436 ;;      Params:         2       0       0       0       0       0       0       0
  5437 ;;      Locals:         0       0       0       0       0       0       0       0
  5438 ;;      Temps:          0       0       0       0       0       0       0       0
  5439 ;;      Totals:         2       0       0       0       0       0       0       0
  5440 ;;Total ram usage:        2 bytes
  5441 ;; Hardware stack levels used: 1
  5442 ;; Hardware stack levels required when called: 4
  5443 ;; This function calls:
  5444 ;;		Nothing
  5445 ;; This function is called by:
  5446 ;;		_TMR1_Initialize
  5447 ;; This function uses a non-reentrant model
  5448 ;;
  5449                           
  5450  071A                     _TMR1_SetInterruptHandler:	
  5451                           ;psect for function _TMR1_SetInterruptHandler
  5452                           
  5453  071A                     l1667:	
  5454                           ;incstack = 0
  5455                           ; Regs used in _TMR1_SetInterruptHandler: [wreg]
  5456                           
  5457                           
  5458                           ;mcc_generated_files/tmr1.c: 194:     TMR1_InterruptHandler = InterruptHandler;
  5459  071A  0873               	movf	TMR1_SetInterruptHandler@InterruptHandler+1,w
  5460  071B  0141               	movlb	1	; select bank1
  5461  071C  00EC               	movwf	(_TMR1_InterruptHandler+1)^(0+128)
  5462  071D  0872               	movf	TMR1_SetInterruptHandler@InterruptHandler,w
  5463  071E  00EB               	movwf	_TMR1_InterruptHandler^(0+128)
  5464  071F                     l142:
  5465  071F  0008               	return
  5466  0720                     __end_of_TMR1_SetInterruptHandler:
  5467                           
  5468                           	psect	text19
  5469  0705                     __ptext19:	
  5470 ;; *************** function _PMD_Initialize *****************
  5471 ;; Defined at:
  5472 ;;		line 75 in file "mcc_generated_files/mcc.c"
  5473 ;; Parameters:    Size  Location     Type
  5474 ;;		None
  5475 ;; Auto vars:     Size  Location     Type
  5476 ;;		None
  5477 ;; Return value:  Size  Location     Type
  5478 ;;                  1    wreg      void 
  5479 ;; Registers used:
  5480 ;;		status,2
  5481 ;; Tracked objects:
  5482 ;;		On entry : 0/0
  5483 ;;		On exit  : 0/0
  5484 ;;		Unchanged: 0/0
  5485 ;; Data sizes:     COMMON   BANK0   BANK1   BANK2   BANK3   BANK4   BANK5   BANK6
  5486 ;;      Params:         0       0       0       0       0       0       0       0
  5487 ;;      Locals:         0       0       0       0       0       0       0       0
  5488 ;;      Temps:          0       0       0       0       0       0       0       0
  5489 ;;      Totals:         0       0       0       0       0       0       0       0
  5490 ;;Total ram usage:        0 bytes
  5491 ;; Hardware stack levels used: 1
  5492 ;; Hardware stack levels required when called: 4
  5493 ;; This function calls:
  5494 ;;		Nothing
  5495 ;; This function is called by:
  5496 ;;		_SYSTEM_Initialize
  5497 ;; This function uses a non-reentrant model
  5498 ;;
  5499                           
  5500  0705                     _PMD_Initialize:	
  5501                           ;psect for function _PMD_Initialize
  5502                           
  5503  0705                     l1723:	
  5504                           ;incstack = 0
  5505                           ; Regs used in _PMD_Initialize: [status,2]
  5506                           
  5507                           
  5508                           ;mcc_generated_files/mcc.c: 78:     PMD0 = 0x00;
  5509  0705  014F               	movlb	15	; select bank15
  5510  0706  0196               	clrf	22	;volatile
  5511                           
  5512                           ;mcc_generated_files/mcc.c: 80:     PMD1 = 0x00;
  5513  0707  0197               	clrf	23	;volatile
  5514                           
  5515                           ;mcc_generated_files/mcc.c: 82:     PMD2 = 0x00;
  5516  0708  0198               	clrf	24	;volatile
  5517                           
  5518                           ;mcc_generated_files/mcc.c: 84:     PMD3 = 0x00;
  5519  0709  0199               	clrf	25	;volatile
  5520                           
  5521                           ;mcc_generated_files/mcc.c: 86:     PMD4 = 0x00;
  5522  070A  019A               	clrf	26	;volatile
  5523                           
  5524                           ;mcc_generated_files/mcc.c: 88:     PMD5 = 0x00;
  5525  070B  019B               	clrf	27	;volatile
  5526  070C                     l43:
  5527  070C  0008               	return
  5528  070D                     __end_of_PMD_Initialize:
  5529                           
  5530                           	psect	text20
  5531  054C                     __ptext20:	
  5532 ;; *************** function _PIN_MANAGER_Initialize *****************
  5533 ;; Defined at:
  5534 ;;		line 58 in file "mcc_generated_files/pin_manager.c"
  5535 ;; Parameters:    Size  Location     Type
  5536 ;;		None
  5537 ;; Auto vars:     Size  Location     Type
  5538 ;;		None
  5539 ;; Return value:  Size  Location     Type
  5540 ;;                  1    wreg      void 
  5541 ;; Registers used:
  5542 ;;		wreg, status,2, status,0, pclath, cstack
  5543 ;; Tracked objects:
  5544 ;;		On entry : 0/0
  5545 ;;		On exit  : 0/0
  5546 ;;		Unchanged: 0/0
  5547 ;; Data sizes:     COMMON   BANK0   BANK1   BANK2   BANK3   BANK4   BANK5   BANK6
  5548 ;;      Params:         0       0       0       0       0       0       0       0
  5549 ;;      Locals:         0       0       0       0       0       0       0       0
  5550 ;;      Temps:          0       0       0       0       0       0       0       0
  5551 ;;      Totals:         0       0       0       0       0       0       0       0
  5552 ;;Total ram usage:        0 bytes
  5553 ;; Hardware stack levels used: 1
  5554 ;; Hardware stack levels required when called: 5
  5555 ;; This function calls:
  5556 ;;		_IOCCF3_SetInterruptHandler
  5557 ;; This function is called by:
  5558 ;;		_SYSTEM_Initialize
  5559 ;; This function uses a non-reentrant model
  5560 ;;
  5561                           
  5562  054C                     _PIN_MANAGER_Initialize:	
  5563                           ;psect for function _PIN_MANAGER_Initialize
  5564                           
  5565  054C                     l1725:	
  5566                           ;incstack = 0
  5567                           ; Regs used in _PIN_MANAGER_Initialize: [wreg+status,2+status,0+pclath+cstack]
  5568                           
  5569                           
  5570                           ;mcc_generated_files/pin_manager.c: 63:     LATA = 0x00;
  5571  054C  0140               	movlb	0	; select bank0
  5572  054D  0198               	clrf	24	;volatile
  5573                           
  5574                           ;mcc_generated_files/pin_manager.c: 64:     LATB = 0x00;
  5575  054E  0199               	clrf	25	;volatile
  5576                           
  5577                           ;mcc_generated_files/pin_manager.c: 65:     LATC = 0x00;
  5578  054F  019A               	clrf	26	;volatile
  5579  0550                     l1727:
  5580                           
  5581                           ;mcc_generated_files/pin_manager.c: 70:     TRISA = 0x3F;
  5582  0550  303F               	movlw	63
  5583  0551  0092               	movwf	18	;volatile
  5584  0552                     l1729:
  5585                           
  5586                           ;mcc_generated_files/pin_manager.c: 71:     TRISB = 0xF0;
  5587  0552  30F0               	movlw	240
  5588  0553  0093               	movwf	19	;volatile
  5589  0554                     l1731:
  5590                           
  5591                           ;mcc_generated_files/pin_manager.c: 72:     TRISC = 0xDF;
  5592  0554  30DF               	movlw	223
  5593  0555  0094               	movwf	20	;volatile
  5594  0556                     l1733:
  5595                           
  5596                           ;mcc_generated_files/pin_manager.c: 77:     ANSELC = 0xC7;
  5597  0556  30C7               	movlw	199
  5598  0557  017E               	movlb	62	; select bank62
  5599  0558  00CE               	movwf	78	;volatile
  5600  0559                     l1735:
  5601                           
  5602                           ;mcc_generated_files/pin_manager.c: 78:     ANSELB = 0xF0;
  5603  0559  30F0               	movlw	240
  5604  055A  00C3               	movwf	67	;volatile
  5605  055B                     l1737:
  5606                           
  5607                           ;mcc_generated_files/pin_manager.c: 79:     ANSELA = 0x37;
  5608  055B  3037               	movlw	55
  5609  055C  00B8               	movwf	56	;volatile
  5610                           
  5611                           ;mcc_generated_files/pin_manager.c: 84:     WPUB = 0x00;
  5612  055D  01C4               	clrf	68	;volatile
  5613                           
  5614                           ;mcc_generated_files/pin_manager.c: 85:     WPUA = 0x00;
  5615  055E  01B9               	clrf	57	;volatile
  5616  055F                     l1739:
  5617                           
  5618                           ;mcc_generated_files/pin_manager.c: 86:     WPUC = 0x08;
  5619  055F  3008               	movlw	8
  5620  0560  00CF               	movwf	79	;volatile
  5621  0561                     l1741:
  5622                           
  5623                           ;mcc_generated_files/pin_manager.c: 91:     ODCONA = 0x00;
  5624  0561  01BA               	clrf	58	;volatile
  5625  0562                     l1743:
  5626                           
  5627                           ;mcc_generated_files/pin_manager.c: 92:     ODCONB = 0x00;
  5628  0562  01C5               	clrf	69	;volatile
  5629  0563                     l1745:
  5630                           
  5631                           ;mcc_generated_files/pin_manager.c: 93:     ODCONC = 0x00;
  5632  0563  01D0               	clrf	80	;volatile
  5633                           
  5634                           ;mcc_generated_files/pin_manager.c: 98:     SLRCONA = 0x3F;
  5635  0564  303F               	movlw	63
  5636  0565  00BB               	movwf	59	;volatile
  5637  0566                     l1747:
  5638                           
  5639                           ;mcc_generated_files/pin_manager.c: 99:     SLRCONB = 0x00;
  5640  0566  01C6               	clrf	70	;volatile
  5641  0567                     l1749:
  5642                           
  5643                           ;mcc_generated_files/pin_manager.c: 100:     SLRCONC = 0x3F;
  5644  0567  303F               	movlw	63
  5645  0568  00D1               	movwf	81	;volatile
  5646  0569                     l1751:
  5647                           
  5648                           ;mcc_generated_files/pin_manager.c: 105:     INLVLA = 0x3F;
  5649  0569  303F               	movlw	63
  5650  056A  00BC               	movwf	60	;volatile
  5651  056B                     l1753:
  5652                           
  5653                           ;mcc_generated_files/pin_manager.c: 106:     INLVLB = 0x00;
  5654  056B  01C7               	clrf	71	;volatile
  5655                           
  5656                           ;mcc_generated_files/pin_manager.c: 107:     INLVLC = 0x3F;
  5657  056C  303F               	movlw	63
  5658  056D  00D2               	movwf	82	;volatile
  5659  056E                     l1755:
  5660                           
  5661                           ;mcc_generated_files/pin_manager.c: 114:     IOCCFbits.IOCCF3 = 0;
  5662  056E  11D5               	bcf	85,3	;volatile
  5663  056F                     l1757:
  5664                           
  5665                           ;mcc_generated_files/pin_manager.c: 116:     IOCCNbits.IOCCN3 = 1;
  5666  056F  15D4               	bsf	84,3	;volatile
  5667  0570                     l1759:
  5668                           
  5669                           ;mcc_generated_files/pin_manager.c: 118:     IOCCPbits.IOCCP3 = 0;
  5670  0570  11D3               	bcf	83,3	;volatile
  5671  0571                     l1761:
  5672                           
  5673                           ;mcc_generated_files/pin_manager.c: 123:     IOCCF3_SetInterruptHandler(IOCCF3_DefaultIn
      +                          terruptHandler);
  5674  0571  3000               	movlw	0
  5675  0572  00F2               	movwf	IOCCF3_SetInterruptHandler@InterruptHandler
  5676  0573  3000               	movlw	0
  5677  0574  00F3               	movwf	IOCCF3_SetInterruptHandler@InterruptHandler+1
  5678  0575  3187  2720  3185   	fcall	_IOCCF3_SetInterruptHandler
  5679  0578                     l1763:
  5680                           
  5681                           ;mcc_generated_files/pin_manager.c: 126:     PIE0bits.IOCIE = 1;
  5682  0578  014E               	movlb	14	; select bank14
  5683  0579  1616               	bsf	22,4	;volatile
  5684  057A                     l1765:
  5685                           
  5686                           ;mcc_generated_files/pin_manager.c: 129:     RC5PPS = 0x0F;
  5687  057A  300F               	movlw	15
  5688  057B  017E               	movlb	62	; select bank62
  5689  057C  00A5               	movwf	37	;volatile
  5690  057D                     l212:
  5691  057D  0008               	return
  5692  057E                     __end_of_PIN_MANAGER_Initialize:
  5693                           
  5694                           	psect	text21
  5695  0720                     __ptext21:	
  5696 ;; *************** function _IOCCF3_SetInterruptHandler *****************
  5697 ;; Defined at:
  5698 ;;		line 163 in file "mcc_generated_files/pin_manager.c"
  5699 ;; Parameters:    Size  Location     Type
  5700 ;;  InterruptHan    2    2[COMMON] PTR FTN()void 
  5701 ;;		 -> IOCCF3_DefaultInterruptHandler(1), 
  5702 ;; Auto vars:     Size  Location     Type
  5703 ;;		None
  5704 ;; Return value:  Size  Location     Type
  5705 ;;                  1    wreg      void 
  5706 ;; Registers used:
  5707 ;;		wreg
  5708 ;; Tracked objects:
  5709 ;;		On entry : 0/0
  5710 ;;		On exit  : 0/0
  5711 ;;		Unchanged: 0/0
  5712 ;; Data sizes:     COMMON   BANK0   BANK1   BANK2   BANK3   BANK4   BANK5   BANK6
  5713 ;;      Params:         2       0       0       0       0       0       0       0
  5714 ;;      Locals:         0       0       0       0       0       0       0       0
  5715 ;;      Temps:          0       0       0       0       0       0       0       0
  5716 ;;      Totals:         2       0       0       0       0       0       0       0
  5717 ;;Total ram usage:        2 bytes
  5718 ;; Hardware stack levels used: 1
  5719 ;; Hardware stack levels required when called: 4
  5720 ;; This function calls:
  5721 ;;		Nothing
  5722 ;; This function is called by:
  5723 ;;		_PIN_MANAGER_Initialize
  5724 ;; This function uses a non-reentrant model
  5725 ;;
  5726                           
  5727  0720                     _IOCCF3_SetInterruptHandler:	
  5728                           ;psect for function _IOCCF3_SetInterruptHandler
  5729                           
  5730  0720                     l1671:	
  5731                           ;incstack = 0
  5732                           ; Regs used in _IOCCF3_SetInterruptHandler: [wreg]
  5733                           
  5734                           
  5735                           ;mcc_generated_files/pin_manager.c: 164:     IOCCF3_InterruptHandler = InterruptHandler;
  5736  0720  0873               	movf	IOCCF3_SetInterruptHandler@InterruptHandler+1,w
  5737  0721  0141               	movlb	1	; select bank1
  5738  0722  00EA               	movwf	(_IOCCF3_InterruptHandler+1)^(0+128)
  5739  0723  0872               	movf	IOCCF3_SetInterruptHandler@InterruptHandler,w
  5740  0724  00E9               	movwf	_IOCCF3_InterruptHandler^(0+128)
  5741  0725                     l222:
  5742  0725  0008               	return
  5743  0726                     __end_of_IOCCF3_SetInterruptHandler:
  5744                           
  5745                           	psect	text22
  5746  06F2                     __ptext22:	
  5747 ;; *************** function _OSCILLATOR_Initialize *****************
  5748 ;; Defined at:
  5749 ;;		line 59 in file "mcc_generated_files/mcc.c"
  5750 ;; Parameters:    Size  Location     Type
  5751 ;;		None
  5752 ;; Auto vars:     Size  Location     Type
  5753 ;;		None
  5754 ;; Return value:  Size  Location     Type
  5755 ;;                  1    wreg      void 
  5756 ;; Registers used:
  5757 ;;		wreg, status,2
  5758 ;; Tracked objects:
  5759 ;;		On entry : 0/0
  5760 ;;		On exit  : 0/0
  5761 ;;		Unchanged: 0/0
  5762 ;; Data sizes:     COMMON   BANK0   BANK1   BANK2   BANK3   BANK4   BANK5   BANK6
  5763 ;;      Params:         0       0       0       0       0       0       0       0
  5764 ;;      Locals:         0       0       0       0       0       0       0       0
  5765 ;;      Temps:          0       0       0       0       0       0       0       0
  5766 ;;      Totals:         0       0       0       0       0       0       0       0
  5767 ;;Total ram usage:        0 bytes
  5768 ;; Hardware stack levels used: 1
  5769 ;; Hardware stack levels required when called: 4
  5770 ;; This function calls:
  5771 ;;		Nothing
  5772 ;; This function is called by:
  5773 ;;		_SYSTEM_Initialize
  5774 ;; This function uses a non-reentrant model
  5775 ;;
  5776                           
  5777  06F2                     _OSCILLATOR_Initialize:	
  5778                           ;psect for function _OSCILLATOR_Initialize
  5779                           
  5780  06F2                     l1767:	
  5781                           ;incstack = 0
  5782                           ; Regs used in _OSCILLATOR_Initialize: [wreg+status,2]
  5783                           
  5784                           
  5785                           ;mcc_generated_files/mcc.c: 62:     OSCCON1 = 0x61;
  5786  06F2  3061               	movlw	97
  5787  06F3  0151               	movlb	17	; select bank17
  5788  06F4  008D               	movwf	13	;volatile
  5789  06F5                     l1769:
  5790                           
  5791                           ;mcc_generated_files/mcc.c: 64:     OSCCON3 = 0x00;
  5792  06F5  018F               	clrf	15	;volatile
  5793  06F6                     l1771:
  5794                           
  5795                           ;mcc_generated_files/mcc.c: 66:     OSCEN = 0x00;
  5796  06F6  0191               	clrf	17	;volatile
  5797                           
  5798                           ;mcc_generated_files/mcc.c: 68:     OSCFRQ = 0x06;
  5799  06F7  3006               	movlw	6
  5800  06F8  0093               	movwf	19	;volatile
  5801  06F9                     l1773:
  5802                           
  5803                           ;mcc_generated_files/mcc.c: 70:     OSCSTAT = 0x00;
  5804  06F9  0190               	clrf	16	;volatile
  5805  06FA                     l1775:
  5806                           
  5807                           ;mcc_generated_files/mcc.c: 72:     OSCTUNE = 0x00;
  5808  06FA  0192               	clrf	18	;volatile
  5809  06FB                     l40:
  5810  06FB  0008               	return
  5811  06FC                     __end_of_OSCILLATOR_Initialize:
  5812                           
  5813                           	psect	text23
  5814  0630                     __ptext23:	
  5815 ;; *************** function _EUSART1_Initialize *****************
  5816 ;; Defined at:
  5817 ;;		line 66 in file "mcc_generated_files/eusart1.c"
  5818 ;; Parameters:    Size  Location     Type
  5819 ;;		None
  5820 ;; Auto vars:     Size  Location     Type
  5821 ;;		None
  5822 ;; Return value:  Size  Location     Type
  5823 ;;                  1    wreg      void 
  5824 ;; Registers used:
  5825 ;;		wreg, status,2, status,0, pclath, cstack
  5826 ;; Tracked objects:
  5827 ;;		On entry : 0/0
  5828 ;;		On exit  : 0/0
  5829 ;;		Unchanged: 0/0
  5830 ;; Data sizes:     COMMON   BANK0   BANK1   BANK2   BANK3   BANK4   BANK5   BANK6
  5831 ;;      Params:         0       0       0       0       0       0       0       0
  5832 ;;      Locals:         0       0       0       0       0       0       0       0
  5833 ;;      Temps:          0       0       0       0       0       0       0       0
  5834 ;;      Totals:         0       0       0       0       0       0       0       0
  5835 ;;Total ram usage:        0 bytes
  5836 ;; Hardware stack levels used: 1
  5837 ;; Hardware stack levels required when called: 5
  5838 ;; This function calls:
  5839 ;;		_EUSART1_SetErrorHandler
  5840 ;;		_EUSART1_SetFramingErrorHandler
  5841 ;;		_EUSART1_SetOverrunErrorHandler
  5842 ;; This function is called by:
  5843 ;;		_SYSTEM_Initialize
  5844 ;; This function uses a non-reentrant model
  5845 ;;
  5846                           
  5847  0630                     _EUSART1_Initialize:	
  5848                           ;psect for function _EUSART1_Initialize
  5849                           
  5850  0630                     l1795:	
  5851                           ;incstack = 0
  5852                           ; Regs used in _EUSART1_Initialize: [wreg+status,2+status,0+pclath+cstack]
  5853                           
  5854                           
  5855                           ;mcc_generated_files/eusart1.c: 71:     BAUD1CON = 0x08;
  5856  0630  3008               	movlw	8
  5857  0631  0142               	movlb	2	; select bank2
  5858  0632  009F               	movwf	31	;volatile
  5859                           
  5860                           ;mcc_generated_files/eusart1.c: 74:     RC1STA = 0x80;
  5861  0633  3080               	movlw	128
  5862  0634  009D               	movwf	29	;volatile
  5863                           
  5864                           ;mcc_generated_files/eusart1.c: 77:     TX1STA = 0x24;
  5865  0635  3024               	movlw	36
  5866  0636  009E               	movwf	30	;volatile
  5867                           
  5868                           ;mcc_generated_files/eusart1.c: 80:     SP1BRGL = 0x22;
  5869  0637  3022               	movlw	34
  5870  0638  009B               	movwf	27	;volatile
  5871  0639                     l1797:
  5872                           
  5873                           ;mcc_generated_files/eusart1.c: 83:     SP1BRGH = 0x00;
  5874  0639  019C               	clrf	28	;volatile
  5875  063A                     l1799:
  5876                           
  5877                           ;mcc_generated_files/eusart1.c: 86:     EUSART1_SetFramingErrorHandler(EUSART1_DefaultFr
      +                          amingErrorHandler);
  5878  063A  3000               	movlw	0
  5879  063B  00F2               	movwf	EUSART1_SetFramingErrorHandler@interruptHandler
  5880  063C  3000               	movlw	0
  5881  063D  00F3               	movwf	EUSART1_SetFramingErrorHandler@interruptHandler+1
  5882  063E  3187  272C  3186   	fcall	_EUSART1_SetFramingErrorHandler
  5883  0641                     l1801:
  5884                           
  5885                           ;mcc_generated_files/eusart1.c: 87:     EUSART1_SetOverrunErrorHandler(EUSART1_DefaultOv
      +                          errunErrorHandler);
  5886  0641  3000               	movlw	0
  5887  0642  00F2               	movwf	EUSART1_SetOverrunErrorHandler@interruptHandler
  5888  0643  3000               	movlw	0
  5889  0644  00F3               	movwf	EUSART1_SetOverrunErrorHandler@interruptHandler+1
  5890  0645  3187  2726  3186   	fcall	_EUSART1_SetOverrunErrorHandler
  5891  0648                     l1803:
  5892                           
  5893                           ;mcc_generated_files/eusart1.c: 88:     EUSART1_SetErrorHandler(EUSART1_DefaultErrorHand
      +                          ler);
  5894  0648  3000               	movlw	0
  5895  0649  00F2               	movwf	EUSART1_SetErrorHandler@interruptHandler
  5896  064A  3000               	movlw	0
  5897  064B  00F3               	movwf	EUSART1_SetErrorHandler@interruptHandler+1
  5898  064C  3187  2732  3186   	fcall	_EUSART1_SetErrorHandler
  5899  064F                     l1805:
  5900                           
  5901                           ;mcc_generated_files/eusart1.c: 90:     eusart1RxLastError.status = 0;
  5902  064F  0141               	movlb	1	; select bank1
  5903  0650  01AA               	clrf	_eusart1RxLastError^(0+128)	;volatile
  5904  0651                     l301:
  5905  0651  0008               	return
  5906  0652                     __end_of_EUSART1_Initialize:
  5907                           
  5908                           	psect	text24
  5909  0726                     __ptext24:	
  5910 ;; *************** function _EUSART1_SetOverrunErrorHandler *****************
  5911 ;; Defined at:
  5912 ;;		line 161 in file "mcc_generated_files/eusart1.c"
  5913 ;; Parameters:    Size  Location     Type
  5914 ;;  interruptHan    2    2[COMMON] PTR FTN()void 
  5915 ;;		 -> EUSART1_DefaultOverrunErrorHandler(1), 
  5916 ;; Auto vars:     Size  Location     Type
  5917 ;;		None
  5918 ;; Return value:  Size  Location     Type
  5919 ;;                  1    wreg      void 
  5920 ;; Registers used:
  5921 ;;		wreg
  5922 ;; Tracked objects:
  5923 ;;		On entry : 0/0
  5924 ;;		On exit  : 0/0
  5925 ;;		Unchanged: 0/0
  5926 ;; Data sizes:     COMMON   BANK0   BANK1   BANK2   BANK3   BANK4   BANK5   BANK6
  5927 ;;      Params:         2       0       0       0       0       0       0       0
  5928 ;;      Locals:         0       0       0       0       0       0       0       0
  5929 ;;      Temps:          0       0       0       0       0       0       0       0
  5930 ;;      Totals:         2       0       0       0       0       0       0       0
  5931 ;;Total ram usage:        2 bytes
  5932 ;; Hardware stack levels used: 1
  5933 ;; Hardware stack levels required when called: 4
  5934 ;; This function calls:
  5935 ;;		Nothing
  5936 ;; This function is called by:
  5937 ;;		_EUSART1_Initialize
  5938 ;; This function uses a non-reentrant model
  5939 ;;
  5940                           
  5941  0726                     _EUSART1_SetOverrunErrorHandler:	
  5942                           ;psect for function _EUSART1_SetOverrunErrorHandler
  5943                           
  5944  0726                     l1675:	
  5945                           ;incstack = 0
  5946                           ; Regs used in _EUSART1_SetOverrunErrorHandler: [wreg]
  5947                           
  5948                           
  5949                           ;mcc_generated_files/eusart1.c: 162:     EUSART1_OverrunErrorHandler = interruptHandler;
  5950  0726  0873               	movf	EUSART1_SetOverrunErrorHandler@interruptHandler+1,w
  5951  0727  0141               	movlb	1	; select bank1
  5952  0728  00E6               	movwf	(_EUSART1_OverrunErrorHandler+1)^(0+128)
  5953  0729  0872               	movf	EUSART1_SetOverrunErrorHandler@interruptHandler,w
  5954  072A  00E5               	movwf	_EUSART1_OverrunErrorHandler^(0+128)
  5955  072B                     l343:
  5956  072B  0008               	return
  5957  072C                     __end_of_EUSART1_SetOverrunErrorHandler:
  5958                           
  5959                           	psect	text25
  5960  072C                     __ptext25:	
  5961 ;; *************** function _EUSART1_SetFramingErrorHandler *****************
  5962 ;; Defined at:
  5963 ;;		line 157 in file "mcc_generated_files/eusart1.c"
  5964 ;; Parameters:    Size  Location     Type
  5965 ;;  interruptHan    2    2[COMMON] PTR FTN()void 
  5966 ;;		 -> EUSART1_DefaultFramingErrorHandler(1), 
  5967 ;; Auto vars:     Size  Location     Type
  5968 ;;		None
  5969 ;; Return value:  Size  Location     Type
  5970 ;;                  1    wreg      void 
  5971 ;; Registers used:
  5972 ;;		wreg
  5973 ;; Tracked objects:
  5974 ;;		On entry : 0/0
  5975 ;;		On exit  : 0/0
  5976 ;;		Unchanged: 0/0
  5977 ;; Data sizes:     COMMON   BANK0   BANK1   BANK2   BANK3   BANK4   BANK5   BANK6
  5978 ;;      Params:         2       0       0       0       0       0       0       0
  5979 ;;      Locals:         0       0       0       0       0       0       0       0
  5980 ;;      Temps:          0       0       0       0       0       0       0       0
  5981 ;;      Totals:         2       0       0       0       0       0       0       0
  5982 ;;Total ram usage:        2 bytes
  5983 ;; Hardware stack levels used: 1
  5984 ;; Hardware stack levels required when called: 4
  5985 ;; This function calls:
  5986 ;;		Nothing
  5987 ;; This function is called by:
  5988 ;;		_EUSART1_Initialize
  5989 ;; This function uses a non-reentrant model
  5990 ;;
  5991                           
  5992  072C                     _EUSART1_SetFramingErrorHandler:	
  5993                           ;psect for function _EUSART1_SetFramingErrorHandler
  5994                           
  5995  072C                     l1673:	
  5996                           ;incstack = 0
  5997                           ; Regs used in _EUSART1_SetFramingErrorHandler: [wreg]
  5998                           
  5999                           
  6000                           ;mcc_generated_files/eusart1.c: 158:     EUSART1_FramingErrorHandler = interruptHandler;
  6001  072C  0873               	movf	EUSART1_SetFramingErrorHandler@interruptHandler+1,w
  6002  072D  0141               	movlb	1	; select bank1
  6003  072E  00E8               	movwf	(_EUSART1_FramingErrorHandler+1)^(0+128)
  6004  072F  0872               	movf	EUSART1_SetFramingErrorHandler@interruptHandler,w
  6005  0730  00E7               	movwf	_EUSART1_FramingErrorHandler^(0+128)
  6006  0731                     l340:
  6007  0731  0008               	return
  6008  0732                     __end_of_EUSART1_SetFramingErrorHandler:
  6009                           
  6010                           	psect	text26
  6011  0732                     __ptext26:	
  6012 ;; *************** function _EUSART1_SetErrorHandler *****************
  6013 ;; Defined at:
  6014 ;;		line 165 in file "mcc_generated_files/eusart1.c"
  6015 ;; Parameters:    Size  Location     Type
  6016 ;;  interruptHan    2    2[COMMON] PTR FTN()void 
  6017 ;;		 -> EUSART1_DefaultErrorHandler(1), 
  6018 ;; Auto vars:     Size  Location     Type
  6019 ;;		None
  6020 ;; Return value:  Size  Location     Type
  6021 ;;                  1    wreg      void 
  6022 ;; Registers used:
  6023 ;;		wreg
  6024 ;; Tracked objects:
  6025 ;;		On entry : 0/0
  6026 ;;		On exit  : 0/0
  6027 ;;		Unchanged: 0/0
  6028 ;; Data sizes:     COMMON   BANK0   BANK1   BANK2   BANK3   BANK4   BANK5   BANK6
  6029 ;;      Params:         2       0       0       0       0       0       0       0
  6030 ;;      Locals:         0       0       0       0       0       0       0       0
  6031 ;;      Temps:          0       0       0       0       0       0       0       0
  6032 ;;      Totals:         2       0       0       0       0       0       0       0
  6033 ;;Total ram usage:        2 bytes
  6034 ;; Hardware stack levels used: 1
  6035 ;; Hardware stack levels required when called: 4
  6036 ;; This function calls:
  6037 ;;		Nothing
  6038 ;; This function is called by:
  6039 ;;		_EUSART1_Initialize
  6040 ;; This function uses a non-reentrant model
  6041 ;;
  6042                           
  6043  0732                     _EUSART1_SetErrorHandler:	
  6044                           ;psect for function _EUSART1_SetErrorHandler
  6045                           
  6046  0732                     l1677:	
  6047                           ;incstack = 0
  6048                           ; Regs used in _EUSART1_SetErrorHandler: [wreg]
  6049                           
  6050                           
  6051                           ;mcc_generated_files/eusart1.c: 166:     EUSART1_ErrorHandler = interruptHandler;
  6052  0732  0873               	movf	EUSART1_SetErrorHandler@interruptHandler+1,w
  6053  0733  0142               	movlb	2	; select bank2
  6054  0734  00C1               	movwf	(_EUSART1_ErrorHandler+1)^(0+256)
  6055  0735  0872               	movf	EUSART1_SetErrorHandler@interruptHandler,w
  6056  0736  00C0               	movwf	_EUSART1_ErrorHandler^(0+256)
  6057  0737                     l346:
  6058  0737  0008               	return
  6059  0738                     __end_of_EUSART1_SetErrorHandler:
  6060                           
  6061                           	psect	intentry
  6062  0004                     __pintentry:	
  6063 ;; *************** function _INTERRUPT_InterruptManager *****************
  6064 ;; Defined at:
  6065 ;;		line 52 in file "mcc_generated_files/interrupt_manager.c"
  6066 ;; Parameters:    Size  Location     Type
  6067 ;;		None
  6068 ;; Auto vars:     Size  Location     Type
  6069 ;;		None
  6070 ;; Return value:  Size  Location     Type
  6071 ;;                  1    wreg      void 
  6072 ;; Registers used:
  6073 ;;		wreg, fsr1l, fsr1h, status,2, status,0, pclath, cstack
  6074 ;; Tracked objects:
  6075 ;;		On entry : 0/0
  6076 ;;		On exit  : 0/0
  6077 ;;		Unchanged: 0/0
  6078 ;; Data sizes:     COMMON   BANK0   BANK1   BANK2   BANK3   BANK4   BANK5   BANK6
  6079 ;;      Params:         0       0       0       0       0       0       0       0
  6080 ;;      Locals:         0       0       0       0       0       0       0       0
  6081 ;;      Temps:          0       0       0       0       0       0       0       0
  6082 ;;      Totals:         0       0       0       0       0       0       0       0
  6083 ;;Total ram usage:        0 bytes
  6084 ;; Hardware stack levels used: 1
  6085 ;; Hardware stack levels required when called: 3
  6086 ;; This function calls:
  6087 ;;		_PIN_MANAGER_IOC
  6088 ;;		_TMR1_ISR
  6089 ;; This function is called by:
  6090 ;;		Interrupt level 1
  6091 ;; This function uses a non-reentrant model
  6092 ;;
  6093                           
  6094  0004                     _INTERRUPT_InterruptManager:
  6095                           
  6096                           ;incstack = 0
  6097  0004  147E               	bsf	int$flags,0	;set compiler interrupt flag (level 1)
  6098                           
  6099                           ; Regs used in _INTERRUPT_InterruptManager: [wreg+fsr1l+fsr1h+status,2+status,0+pclath+c
      +                          stack]
  6100  0005  3180               	pagesel	$
  6101  0006                     i1l1897:
  6102                           
  6103                           ;mcc_generated_files/interrupt_manager.c: 55:     if(PIE0bits.IOCIE == 1 && PIR0bits.IOC
      +                          IF == 1)
  6104  0006  014E               	movlb	14	; select bank14
  6105  0007  1E16               	btfss	22,4	;volatile
  6106  0008  280A               	goto	u127_21
  6107  0009  280B               	goto	u127_20
  6108  000A                     u127_21:
  6109  000A  2813               	goto	i1l62
  6110  000B                     u127_20:
  6111  000B                     i1l1899:
  6112  000B  1E0C               	btfss	12,4	;volatile
  6113  000C  280E               	goto	u128_21
  6114  000D  280F               	goto	u128_20
  6115  000E                     u128_21:
  6116  000E  2813               	goto	i1l62
  6117  000F                     u128_20:
  6118  000F                     i1l1901:
  6119                           
  6120                           ;mcc_generated_files/interrupt_manager.c: 56:     {;mcc_generated_files/interrupt_manage
      +                          r.c: 57:         PIN_MANAGER_IOC();
  6121  000F  3186  26FC  3180   	fcall	_PIN_MANAGER_IOC
  6122                           
  6123                           ;mcc_generated_files/interrupt_manager.c: 58:     }
  6124  0012  2823               	goto	i1l68
  6125  0013                     i1l62:	
  6126                           ;mcc_generated_files/interrupt_manager.c: 59:     else if(INTCONbits.PEIE == 1)
  6127                           
  6128  0013  1F0B               	btfss	11,6	;volatile
  6129  0014  2816               	goto	u129_21
  6130  0015  2817               	goto	u129_20
  6131  0016                     u129_21:
  6132  0016  2823               	goto	i1l68
  6133  0017                     u129_20:
  6134  0017                     i1l1903:
  6135                           
  6136                           ;mcc_generated_files/interrupt_manager.c: 60:     {;mcc_generated_files/interrupt_manage
      +                          r.c: 61:         if(PIE4bits.TMR1IE == 1 && PIR4bits.TMR1IF == 1)
  6137  0017  1C1A               	btfss	26,0	;volatile
  6138  0018  281A               	goto	u130_21
  6139  0019  281B               	goto	u130_20
  6140  001A                     u130_21:
  6141  001A  2823               	goto	i1l67
  6142  001B                     u130_20:
  6143  001B                     i1l1905:
  6144  001B  1C10               	btfss	16,0	;volatile
  6145  001C  281E               	goto	u131_21
  6146  001D  281F               	goto	u131_20
  6147  001E                     u131_21:
  6148  001E  2823               	goto	i1l67
  6149  001F                     u131_20:
  6150  001F                     i1l1907:
  6151                           
  6152                           ;mcc_generated_files/interrupt_manager.c: 62:         {;mcc_generated_files/interrupt_ma
      +                          nager.c: 63:             TMR1_ISR();
  6153  001F  3185  25AF  3180   	fcall	_TMR1_ISR
  6154                           
  6155                           ;mcc_generated_files/interrupt_manager.c: 64:         }
  6156  0022  2823               	goto	i1l68
  6157  0023                     i1l67:	
  6158                           ;mcc_generated_files/interrupt_manager.c: 71:     {;mcc_generated_files/interrupt_manage
      +                          r.c: 73:     }
  6159                           
  6160  0023                     i1l68:
  6161  0023  107E               	bcf	int$flags,0	;clear compiler interrupt flag (level 1)
  6162  0024  0009               	retfie
  6163  0025                     __end_of_INTERRUPT_InterruptManager:
  6164                           
  6165                           	psect	text28
  6166  05AF                     __ptext28:	
  6167 ;; *************** function _TMR1_ISR *****************
  6168 ;; Defined at:
  6169 ;;		line 165 in file "mcc_generated_files/tmr1.c"
  6170 ;; Parameters:    Size  Location     Type
  6171 ;;		None
  6172 ;; Auto vars:     Size  Location     Type
  6173 ;;		None
  6174 ;; Return value:  Size  Location     Type
  6175 ;;                  1    wreg      void 
  6176 ;; Registers used:
  6177 ;;		wreg, fsr1l, fsr1h, status,2, status,0, pclath, cstack
  6178 ;; Tracked objects:
  6179 ;;		On entry : 0/0
  6180 ;;		On exit  : 0/0
  6181 ;;		Unchanged: 0/0
  6182 ;; Data sizes:     COMMON   BANK0   BANK1   BANK2   BANK3   BANK4   BANK5   BANK6
  6183 ;;      Params:         0       0       0       0       0       0       0       0
  6184 ;;      Locals:         0       0       0       0       0       0       0       0
  6185 ;;      Temps:          0       0       0       0       0       0       0       0
  6186 ;;      Totals:         0       0       0       0       0       0       0       0
  6187 ;;Total ram usage:        0 bytes
  6188 ;; Hardware stack levels used: 1
  6189 ;; Hardware stack levels required when called: 1
  6190 ;; This function calls:
  6191 ;;		_TMR1_WriteTimer
  6192 ;;		i1_TMR1_StopTimer
  6193 ;; This function is called by:
  6194 ;;		_INTERRUPT_InterruptManager
  6195 ;; This function uses a non-reentrant model
  6196 ;;
  6197                           
  6198  05AF                     _TMR1_ISR:	
  6199                           ;psect for function _TMR1_ISR
  6200                           
  6201  05AF                     i1l1861:	
  6202                           ;incstack = 0
  6203                           ; Regs used in _TMR1_ISR: [wreg+fsr1l+fsr1h+status,2+status,0+pclath+cstack]
  6204                           
  6205                           
  6206                           ;mcc_generated_files/tmr1.c: 169:     PIR4bits.TMR1IF = 0;
  6207  05AF  014E               	movlb	14	; select bank14
  6208  05B0  1010               	bcf	16,0	;volatile
  6209  05B1                     i1l1863:
  6210                           
  6211                           ;mcc_generated_files/tmr1.c: 170:     TMR1_WriteTimer(timer1ReloadVal);
  6212  05B1  0141               	movlb	1	; select bank1
  6213  05B2  086E               	movf	(_timer1ReloadVal+1)^(0+128),w	;volatile
  6214  05B3  00F1               	movwf	TMR1_WriteTimer@timerVal+1
  6215  05B4  086D               	movf	_timer1ReloadVal^(0+128),w	;volatile
  6216  05B5  00F0               	movwf	TMR1_WriteTimer@timerVal
  6217  05B6  3186  26BC  3185   	fcall	_TMR1_WriteTimer
  6218  05B9                     i1l1865:
  6219                           
  6220                           ;mcc_generated_files/tmr1.c: 174:     if(count<13)
  6221  05B9  3000               	movlw	0
  6222  05BA  0141               	movlb	1	; select bank1
  6223  05BB  0227               	subwf	(_count+1)^(0+128),w
  6224  05BC  300D               	movlw	13
  6225  05BD  1903               	skipnz
  6226  05BE  0226               	subwf	_count^(0+128),w
  6227  05BF  1803               	skipnc
  6228  05C0  2DC2               	goto	u125_21
  6229  05C1  2DC3               	goto	u125_20
  6230  05C2                     u125_21:
  6231  05C2  2DD2               	goto	i1l137
  6232  05C3                     u125_20:
  6233  05C3                     i1l1867:
  6234                           
  6235                           ;mcc_generated_files/tmr1.c: 175:     {;mcc_generated_files/tmr1.c: 176:         Buff[co
      +                          unt++]=PORTCbits.RC3;
  6236  05C3  0826               	movf	_count^(0+128),w
  6237  05C4  3EBF               	addlw	(low (_Buff| 0))& (0+255)
  6238  05C5  0086               	movwf	6
  6239  05C6  0187               	clrf	7
  6240  05C7  3000               	movlw	0
  6241  05C8  0140               	movlb	0	; select bank0
  6242  05C9  198E               	btfsc	14,3	;volatile
  6243  05CA  3001               	movlw	1
  6244  05CB  0081               	movwf	1
  6245  05CC                     i1l1869:
  6246  05CC  3001               	movlw	1
  6247  05CD  0141               	movlb	1	; select bank1
  6248  05CE  07A6               	addwf	_count^(0+128),f
  6249  05CF  3000               	movlw	0
  6250  05D0  3DA7               	addwfc	(_count+1)^(0+128),f
  6251                           
  6252                           ;mcc_generated_files/tmr1.c: 177:     }
  6253  05D1  2DDE               	goto	i1l139
  6254  05D2                     i1l137:	
  6255                           ;mcc_generated_files/tmr1.c: 178:     else
  6256                           
  6257                           
  6258                           ;mcc_generated_files/tmr1.c: 179:     {;mcc_generated_files/tmr1.c: 180:         IOCCFbi
      +                          ts.IOCCF3 = 1;
  6259  05D2  017E               	movlb	62	; select bank62
  6260  05D3  15D5               	bsf	85,3	;volatile
  6261                           
  6262                           ;mcc_generated_files/tmr1.c: 181:         PIE0bits.IOCIE=1;
  6263  05D4  014E               	movlb	14	; select bank14
  6264  05D5  1616               	bsf	22,4	;volatile
  6265  05D6                     i1l1871:
  6266                           
  6267                           ;mcc_generated_files/tmr1.c: 182:         TMR1_StopTimer();
  6268  05D6  3187  273B  3185   	fcall	i1_TMR1_StopTimer
  6269  05D9                     i1l1873:
  6270                           
  6271                           ;mcc_generated_files/tmr1.c: 183:         GotData=1;
  6272  05D9  3001               	movlw	1
  6273  05DA  0141               	movlb	1	; select bank1
  6274  05DB  00A8               	movwf	_GotData^(0+128)
  6275  05DC  3000               	movlw	0
  6276  05DD  00A9               	movwf	(_GotData^(0+128)+1)
  6277  05DE                     i1l139:
  6278  05DE  0008               	return
  6279  05DF                     __end_of_TMR1_ISR:
  6280                           
  6281                           	psect	text29
  6282  073B                     __ptext29:	
  6283 ;; *************** function i1_TMR1_StopTimer *****************
  6284 ;; Defined at:
  6285 ;;		line 105 in file "mcc_generated_files/tmr1.c"
  6286 ;; Parameters:    Size  Location     Type
  6287 ;;		None
  6288 ;; Auto vars:     Size  Location     Type
  6289 ;;		None
  6290 ;; Return value:  Size  Location     Type
  6291 ;;                  1    wreg      void 
  6292 ;; Registers used:
  6293 ;;		None
  6294 ;; Tracked objects:
  6295 ;;		On entry : 0/0
  6296 ;;		On exit  : 0/0
  6297 ;;		Unchanged: 0/0
  6298 ;; Data sizes:     COMMON   BANK0   BANK1   BANK2   BANK3   BANK4   BANK5   BANK6
  6299 ;;      Params:         0       0       0       0       0       0       0       0
  6300 ;;      Locals:         0       0       0       0       0       0       0       0
  6301 ;;      Temps:          0       0       0       0       0       0       0       0
  6302 ;;      Totals:         0       0       0       0       0       0       0       0
  6303 ;;Total ram usage:        0 bytes
  6304 ;; Hardware stack levels used: 1
  6305 ;; This function calls:
  6306 ;;		Nothing
  6307 ;; This function is called by:
  6308 ;;		_TMR1_ISR
  6309 ;; This function uses a non-reentrant model
  6310 ;;
  6311                           
  6312  073B                     i1_TMR1_StopTimer:	
  6313                           ;psect for function i1_TMR1_StopTimer
  6314                           
  6315  073B                     i1l1845:	
  6316                           ;incstack = 0
  6317                           ; Regs used in i1_TMR1_StopTimer: []
  6318                           
  6319                           
  6320                           ;mcc_generated_files/tmr1.c: 108:     T1CONbits.TMR1ON = 0;
  6321  073B  0144               	movlb	4	; select bank4
  6322  073C  100E               	bcf	14,0	;volatile
  6323  073D                     i1l111:
  6324  073D  0008               	return
  6325  073E                     __end_ofi1_TMR1_StopTimer:
  6326                           
  6327                           	psect	text30
  6328  06BC                     __ptext30:	
  6329 ;; *************** function _TMR1_WriteTimer *****************
  6330 ;; Defined at:
  6331 ;;		line 127 in file "mcc_generated_files/tmr1.c"
  6332 ;; Parameters:    Size  Location     Type
  6333 ;;  timerVal        2    0[COMMON] unsigned short 
  6334 ;; Auto vars:     Size  Location     Type
  6335 ;;		None
  6336 ;; Return value:  Size  Location     Type
  6337 ;;                  1    wreg      void 
  6338 ;; Registers used:
  6339 ;;		wreg, status,2
  6340 ;; Tracked objects:
  6341 ;;		On entry : 0/0
  6342 ;;		On exit  : 0/0
  6343 ;;		Unchanged: 0/0
  6344 ;; Data sizes:     COMMON   BANK0   BANK1   BANK2   BANK3   BANK4   BANK5   BANK6
  6345 ;;      Params:         2       0       0       0       0       0       0       0
  6346 ;;      Locals:         0       0       0       0       0       0       0       0
  6347 ;;      Temps:          0       0       0       0       0       0       0       0
  6348 ;;      Totals:         2       0       0       0       0       0       0       0
  6349 ;;Total ram usage:        2 bytes
  6350 ;; Hardware stack levels used: 1
  6351 ;; This function calls:
  6352 ;;		Nothing
  6353 ;; This function is called by:
  6354 ;;		_TMR1_ISR
  6355 ;;		_TMR1_Reload
  6356 ;; This function uses a non-reentrant model
  6357 ;;
  6358                           
  6359  06BC                     _TMR1_WriteTimer:	
  6360                           ;psect for function _TMR1_WriteTimer
  6361                           
  6362  06BC                     i1l1807:	
  6363                           ;incstack = 0
  6364                           ; Regs used in _TMR1_WriteTimer: [wreg+status,2]
  6365                           
  6366                           
  6367                           ;mcc_generated_files/tmr1.c: 127: void TMR1_WriteTimer(uint16_t timerVal);mcc_generated_
      +                          files/tmr1.c: 128: {;mcc_generated_files/tmr1.c: 129:     if (T1CONbits.nT1SYNC == 1)
  6368  06BC  0144               	movlb	4	; select bank4
  6369  06BD  1D0E               	btfss	14,2	;volatile
  6370  06BE  2EC0               	goto	u121_21
  6371  06BF  2EC1               	goto	u121_20
  6372  06C0                     u121_21:
  6373  06C0  2EC8               	goto	i1l1817
  6374  06C1                     u121_20:
  6375  06C1                     i1l1809:
  6376                           
  6377                           ;mcc_generated_files/tmr1.c: 130:     {;mcc_generated_files/tmr1.c: 132:         T1CONbi
      +                          ts.TMR1ON = 0;
  6378  06C1  100E               	bcf	14,0	;volatile
  6379  06C2                     i1l1811:
  6380                           
  6381                           ;mcc_generated_files/tmr1.c: 135:         TMR1H = (uint8_t)(timerVal >> 8);
  6382  06C2  0871               	movf	TMR1_WriteTimer@timerVal+1,w
  6383  06C3  008D               	movwf	13	;volatile
  6384  06C4                     i1l1813:
  6385                           
  6386                           ;mcc_generated_files/tmr1.c: 136:         TMR1L = (uint8_t)timerVal;
  6387  06C4  0870               	movf	TMR1_WriteTimer@timerVal,w
  6388  06C5  008C               	movwf	12	;volatile
  6389  06C6                     i1l1815:
  6390                           
  6391                           ;mcc_generated_files/tmr1.c: 139:         T1CONbits.TMR1ON =1;
  6392  06C6  140E               	bsf	14,0	;volatile
  6393                           
  6394                           ;mcc_generated_files/tmr1.c: 140:     }
  6395  06C7  2ECC               	goto	i1l119
  6396  06C8                     i1l1817:
  6397                           
  6398                           ;mcc_generated_files/tmr1.c: 142:     {;mcc_generated_files/tmr1.c: 144:         TMR1H =
      +                           (uint8_t)(timerVal >> 8);
  6399  06C8  0871               	movf	TMR1_WriteTimer@timerVal+1,w
  6400  06C9  008D               	movwf	13	;volatile
  6401  06CA                     i1l1819:
  6402                           
  6403                           ;mcc_generated_files/tmr1.c: 145:         TMR1L = (uint8_t)timerVal;
  6404  06CA  0870               	movf	TMR1_WriteTimer@timerVal,w
  6405  06CB  008C               	movwf	12	;volatile
  6406  06CC                     i1l119:
  6407  06CC  0008               	return
  6408  06CD                     __end_of_TMR1_WriteTimer:
  6409                           
  6410                           	psect	text31
  6411  06FC                     __ptext31:	
  6412 ;; *************** function _PIN_MANAGER_IOC *****************
  6413 ;; Defined at:
  6414 ;;		line 132 in file "mcc_generated_files/pin_manager.c"
  6415 ;; Parameters:    Size  Location     Type
  6416 ;;		None
  6417 ;; Auto vars:     Size  Location     Type
  6418 ;;		None
  6419 ;; Return value:  Size  Location     Type
  6420 ;;                  1    wreg      void 
  6421 ;; Registers used:
  6422 ;;		status,2, status,0, pclath, cstack
  6423 ;; Tracked objects:
  6424 ;;		On entry : 0/0
  6425 ;;		On exit  : 0/0
  6426 ;;		Unchanged: 0/0
  6427 ;; Data sizes:     COMMON   BANK0   BANK1   BANK2   BANK3   BANK4   BANK5   BANK6
  6428 ;;      Params:         0       0       0       0       0       0       0       0
  6429 ;;      Locals:         0       0       0       0       0       0       0       0
  6430 ;;      Temps:          0       0       0       0       0       0       0       0
  6431 ;;      Totals:         0       0       0       0       0       0       0       0
  6432 ;;Total ram usage:        0 bytes
  6433 ;; Hardware stack levels used: 1
  6434 ;; Hardware stack levels required when called: 2
  6435 ;; This function calls:
  6436 ;;		_IOCCF3_ISR
  6437 ;; This function is called by:
  6438 ;;		_INTERRUPT_InterruptManager
  6439 ;; This function uses a non-reentrant model
  6440 ;;
  6441                           
  6442  06FC                     _PIN_MANAGER_IOC:	
  6443                           ;psect for function _PIN_MANAGER_IOC
  6444                           
  6445  06FC                     i1l1857:	
  6446                           ;incstack = 0
  6447                           ; Regs used in _PIN_MANAGER_IOC: [status,2+status,0+pclath+cstack]
  6448                           
  6449                           
  6450                           ;mcc_generated_files/pin_manager.c: 135:     if(IOCCFbits.IOCCF3 == 1)
  6451  06FC  017E               	movlb	62	; select bank62
  6452  06FD  1DD5               	btfss	85,3	;volatile
  6453  06FE  2F00               	goto	u124_21
  6454  06FF  2F01               	goto	u124_20
  6455  0700                     u124_21:
  6456  0700  2F04               	goto	i1l216
  6457  0701                     u124_20:
  6458  0701                     i1l1859:
  6459                           
  6460                           ;mcc_generated_files/pin_manager.c: 136:     {;mcc_generated_files/pin_manager.c: 137:  
      +                                 IOCCF3_ISR();
  6461  0701  3186  26DD  3186   	fcall	_IOCCF3_ISR
  6462  0704                     i1l216:
  6463  0704  0008               	return
  6464  0705                     __end_of_PIN_MANAGER_IOC:
  6465                           
  6466                           	psect	text32
  6467  06DD                     __ptext32:	
  6468 ;; *************** function _IOCCF3_ISR *****************
  6469 ;; Defined at:
  6470 ;;		line 145 in file "mcc_generated_files/pin_manager.c"
  6471 ;; Parameters:    Size  Location     Type
  6472 ;;		None
  6473 ;; Auto vars:     Size  Location     Type
  6474 ;;		None
  6475 ;; Return value:  Size  Location     Type
  6476 ;;                  1    wreg      void 
  6477 ;; Registers used:
  6478 ;;		status,2, status,0, pclath, cstack
  6479 ;; Tracked objects:
  6480 ;;		On entry : 0/0
  6481 ;;		On exit  : 0/0
  6482 ;;		Unchanged: 0/0
  6483 ;; Data sizes:     COMMON   BANK0   BANK1   BANK2   BANK3   BANK4   BANK5   BANK6
  6484 ;;      Params:         0       0       0       0       0       0       0       0
  6485 ;;      Locals:         0       0       0       0       0       0       0       0
  6486 ;;      Temps:          0       0       0       0       0       0       0       0
  6487 ;;      Totals:         0       0       0       0       0       0       0       0
  6488 ;;Total ram usage:        0 bytes
  6489 ;; Hardware stack levels used: 1
  6490 ;; Hardware stack levels required when called: 1
  6491 ;; This function calls:
  6492 ;;		_TMR1_StartTimer
  6493 ;; This function is called by:
  6494 ;;		_PIN_MANAGER_IOC
  6495 ;; This function uses a non-reentrant model
  6496 ;;
  6497                           
  6498  06DD                     _IOCCF3_ISR:	
  6499                           ;psect for function _IOCCF3_ISR
  6500                           
  6501  06DD                     i1l1821:	
  6502                           ;incstack = 0
  6503                           ; Regs used in _IOCCF3_ISR: [status,2+status,0+pclath+cstack]
  6504                           
  6505                           
  6506                           ;mcc_generated_files/pin_manager.c: 149:     TMR1_StartTimer();
  6507  06DD  3187  273E  3186   	fcall	_TMR1_StartTimer
  6508  06E0                     i1l1823:
  6509                           
  6510                           ;mcc_generated_files/pin_manager.c: 155:     IOCCFbits.IOCCF3 = 0;
  6511  06E0  017E               	movlb	62	; select bank62
  6512  06E1  11D5               	bcf	85,3	;volatile
  6513  06E2                     i1l1825:
  6514                           
  6515                           ;mcc_generated_files/pin_manager.c: 156:     PIE0bits.IOCIE=0;
  6516  06E2  014E               	movlb	14	; select bank14
  6517  06E3  1216               	bcf	22,4	;volatile
  6518  06E4                     i1l1827:
  6519                           
  6520                           ;mcc_generated_files/pin_manager.c: 157:     count=0;
  6521  06E4  0141               	movlb	1	; select bank1
  6522  06E5  01A6               	clrf	_count^(0+128)
  6523  06E6  01A7               	clrf	(_count+1)^(0+128)
  6524  06E7                     i1l219:
  6525  06E7  0008               	return
  6526  06E8                     __end_of_IOCCF3_ISR:
  6527                           
  6528                           	psect	text33
  6529  073E                     __ptext33:	
  6530 ;; *************** function _TMR1_StartTimer *****************
  6531 ;; Defined at:
  6532 ;;		line 99 in file "mcc_generated_files/tmr1.c"
  6533 ;; Parameters:    Size  Location     Type
  6534 ;;		None
  6535 ;; Auto vars:     Size  Location     Type
  6536 ;;		None
  6537 ;; Return value:  Size  Location     Type
  6538 ;;                  1    wreg      void 
  6539 ;; Registers used:
  6540 ;;		None
  6541 ;; Tracked objects:
  6542 ;;		On entry : 0/0
  6543 ;;		On exit  : 0/0
  6544 ;;		Unchanged: 0/0
  6545 ;; Data sizes:     COMMON   BANK0   BANK1   BANK2   BANK3   BANK4   BANK5   BANK6
  6546 ;;      Params:         0       0       0       0       0       0       0       0
  6547 ;;      Locals:         0       0       0       0       0       0       0       0
  6548 ;;      Temps:          0       0       0       0       0       0       0       0
  6549 ;;      Totals:         0       0       0       0       0       0       0       0
  6550 ;;Total ram usage:        0 bytes
  6551 ;; Hardware stack levels used: 1
  6552 ;; This function calls:
  6553 ;;		Nothing
  6554 ;; This function is called by:
  6555 ;;		_IOCCF3_ISR
  6556 ;; This function uses a non-reentrant model
  6557 ;;
  6558                           
  6559  073E                     _TMR1_StartTimer:	
  6560                           ;psect for function _TMR1_StartTimer
  6561                           
  6562  073E                     i1l1669:	
  6563                           ;incstack = 0
  6564                           ; Regs used in _TMR1_StartTimer: []
  6565                           
  6566                           
  6567                           ;mcc_generated_files/tmr1.c: 102:     T1CONbits.TMR1ON = 1;
  6568  073E  0144               	movlb	4	; select bank4
  6569  073F  140E               	bsf	14,0	;volatile
  6570  0740                     i1l108:
  6571  0740  0008               	return
  6572  0741                     __end_of_TMR1_StartTimer:
  6573  007E                     btemp	set	126	;btemp
  6574  007E                     int$flags	set	126
  6575  007E                     wtemp0	set	126
  6576                           
  6577                           	psect	idloc
  6578                           
  6579                           ;Config register IDLOC0 @ 0x8000
  6580                           ;	unspecified, using default values
  6581  8000                     	org	32768
  6582  8000  3FFF               	dw	16383
  6583                           
  6584                           ;Config register IDLOC1 @ 0x8001
  6585                           ;	unspecified, using default values
  6586  8001                     	org	32769
  6587  8001  3FFF               	dw	16383
  6588                           
  6589                           ;Config register IDLOC2 @ 0x8002
  6590                           ;	unspecified, using default values
  6591  8002                     	org	32770
  6592  8002  3FFF               	dw	16383
  6593                           
  6594                           ;Config register IDLOC3 @ 0x8003
  6595                           ;	unspecified, using default values
  6596  8003                     	org	32771
  6597  8003  3FFF               	dw	16383
  6598                           
  6599                           	psect	config
  6600                           
  6601                           ;Config register CONFIG1 @ 0x8007
  6602                           ;	External Oscillator mode selection bits
  6603                           ;	FEXTOSC = OFF, Oscillator not enabled
  6604                           ;	Power-up default value for COSC bits
  6605                           ;	RSTOSC = HFINT1, HFINTOSC (1MHz)
  6606                           ;	Clock Out Enable bit
  6607                           ;	CLKOUTEN = OFF, CLKOUT function is disabled; i/o or oscillator function on OSC2
  6608                           ;	Clock Switch Enable bit
  6609                           ;	CSWEN = ON, Writing to NOSC and NDIV is allowed
  6610                           ;	Fail-Safe Clock Monitor Enable bit
  6611                           ;	FCMEN = ON, FSCM timer enabled
  6612  8007                     	org	32775
  6613  8007  3FEC               	dw	16364
  6614                           
  6615                           ;Config register CONFIG2 @ 0x8008
  6616                           ;	Master Clear Enable bit
  6617                           ;	MCLRE = ON, MCLR pin is Master Clear function
  6618                           ;	Power-up Timer Enable bit
  6619                           ;	PWRTE = OFF, PWRT disabled
  6620                           ;	Low-Power BOR enable bit
  6621                           ;	LPBOREN = OFF, ULPBOR disabled
  6622                           ;	Brown-out reset enable bits
  6623                           ;	BOREN = ON, Brown-out Reset Enabled, SBOREN bit is ignored
  6624                           ;	Brown-out Reset Voltage Selection
  6625                           ;	BORV = LO, Brown-out Reset Voltage (VBOR) set to 1.9V on LF, and 2.45V on F Devices
  6626                           ;	Zero-cross detect disable
  6627                           ;	ZCD = OFF, Zero-cross detect circuit is disabled at POR.
  6628                           ;	Peripheral Pin Select one-way control
  6629                           ;	PPS1WAY = ON, The PPSLOCK bit can be cleared and set only once in software
  6630                           ;	Stack Overflow/Underflow Reset Enable bit
  6631                           ;	STVREN = ON, Stack Overflow or Underflow will cause a reset
  6632  8008                     	org	32776
  6633  8008  3FFF               	dw	16383
  6634                           
  6635                           ;Config register CONFIG3 @ 0x8009
  6636                           ;	WDT Period Select bits
  6637                           ;	WDTCPS = WDTCPS_31, Divider ratio 1:65536; software control of WDTPS
  6638                           ;	WDT operating mode
  6639                           ;	WDTE = OFF, WDT Disabled, SWDTEN is ignored
  6640                           ;	WDT Window Select bits
  6641                           ;	WDTCWS = WDTCWS_7, window always open (100%); software control; keyed access not requi
      +                          red
  6642                           ;	WDT input clock selector
  6643                           ;	WDTCCS = SC, Software Control
  6644  8009                     	org	32777
  6645  8009  3F9F               	dw	16287
  6646                           
  6647                           ;Config register CONFIG4 @ 0x800A
  6648                           ;	Boot Block Size Selection bits
  6649                           ;	BBSIZE = BB512, 512 words boot block size
  6650                           ;	Boot Block Enable bit
  6651                           ;	BBEN = OFF, Boot Block disabled
  6652                           ;	SAF Enable bit
  6653                           ;	SAFEN = OFF, SAF disabled
  6654                           ;	Application Block Write Protection bit
  6655                           ;	WRTAPP = OFF, Application Block not write protected
  6656                           ;	Boot Block Write Protection bit
  6657                           ;	WRTB = OFF, Boot Block not write protected
  6658                           ;	Configuration Register Write Protection bit
  6659                           ;	WRTC = OFF, Configuration Register not write protected
  6660                           ;	Storage Area Flash Write Protection bit
  6661                           ;	WRTSAF = OFF, SAF not write protected
  6662                           ;	Low Voltage Programming Enable bit
  6663                           ;	LVP = ON, Low Voltage programming enabled. MCLR/Vpp pin function is MCLR.
  6664  800A                     	org	32778
  6665  800A  3FFF               	dw	16383
  6666                           
  6667                           ;Config register CONFIG5 @ 0x800B
  6668                           ;	UserNVM Program memory code protection bit
  6669                           ;	CP = OFF, UserNVM code protection disabled
  6670  800B                     	org	32779
  6671  800B  3FFF               	dw	16383

Data Sizes:
    Strings     7
    Constant    0
    Data        0
    BSS         85
    Persistent  44
    Stack       0

Auto Spaces:
    Space          Size  Autos    Used
    COMMON           14     10      12
    BANK0            80     80      80
    BANK1            80     18      79
    BANK2            80      0      34
    BANK3            80      0       0
    BANK4            80      0       0
    BANK5            80      0       0
    BANK6            16      0       0

Pointer List with Targets:

    strlen@s	PTR const unsigned char  size(1) Largest target is 32
		 -> dbuf(BANK2[32]), 

    strlen@a	PTR const unsigned char  size(1) Largest target is 32
		 -> dbuf(BANK2[32]), 

    fputs@s	PTR const unsigned char  size(1) Largest target is 32
		 -> dbuf(BANK2[32]), 

    fputs@fp	PTR struct _IO_FILE size(1) Largest target is 10
		 -> sprintf@f(BANK1[10]), 

    fputc@fp...source	PTR const unsigned char  size(1) Largest target is 0

    fputc@fp...buffer	PTR unsigned char  size(1) Largest target is 0

    fputc@fp	PTR struct _IO_FILE size(1) Largest target is 10
		 -> sprintf@f(BANK1[10]), 

    vfprintf@ap	PTR PTR void  size(1) Largest target is 1
		 -> sprintf@ap(BANK1[1]), 

    vfprintf@fp	PTR struct _IO_FILE size(1) Largest target is 10
		 -> sprintf@f(BANK1[10]), 

    vfprintf@fmt	PTR const unsigned char  size(2) Largest target is 7
		 -> STR_1(CODE[7]), 

    vfprintf@cfmt	PTR unsigned char  size(2) Largest target is 7
		 -> STR_1(CODE[7]), 

    vfpfcnvrt@fp	PTR struct _IO_FILE size(1) Largest target is 10
		 -> sprintf@f(BANK1[10]), 

    vfpfcnvrt@ap	PTR PTR void  size(1) Largest target is 1
		 -> sprintf@ap(BANK1[1]), 

    vfpfcnvrt@fmt	PTR PTR unsigned char  size(1) Largest target is 2
		 -> vfprintf@cfmt(BANK0[2]), 

    dtoa@fp	PTR struct _IO_FILE size(1) Largest target is 10
		 -> sprintf@f(BANK1[10]), 

    pad@fp	PTR struct _IO_FILE size(1) Largest target is 10
		 -> sprintf@f(BANK1[10]), 

    pad@buf	PTR unsigned char  size(1) Largest target is 32
		 -> dbuf(BANK2[32]), 

    sprintf@fmt	PTR const unsigned char  size(2) Largest target is 7
		 -> STR_1(CODE[7]), 

    sprintf@s	PTR unsigned char  size(1) Largest target is 20
		 -> sendbuff(BANK1[20]), 

    sprintf@ap	PTR void [1] size(1) Largest target is 2
		 -> ?_sprintf(BANK1[2]), 

    S1012$source	PTR const unsigned char  size(1) Largest target is 0

    f...source	PTR const unsigned char  size(1) Largest target is 0

    S1012$buffer	PTR unsigned char  size(1) Largest target is 0

    f...buffer	PTR unsigned char  size(1) Largest target is 0

    EUSART1_SetErrorHandler@interruptHandler	PTR FTN()void  size(2) Largest target is 1
		 -> EUSART1_DefaultErrorHandler(), 

    EUSART1_ErrorHandler	PTR FTN()void  size(2) Largest target is 1
		 -> Absolute function(), EUSART1_DefaultErrorHandler(), 

    EUSART1_SetOverrunErrorHandler@interruptHandler	PTR FTN()void  size(2) Largest target is 1
		 -> EUSART1_DefaultOverrunErrorHandler(), 

    EUSART1_OverrunErrorHandler	PTR FTN()void  size(2) Largest target is 1
		 -> Absolute function(), EUSART1_DefaultOverrunErrorHandler(), 

    EUSART1_SetFramingErrorHandler@interruptHandler	PTR FTN()void  size(2) Largest target is 1
		 -> EUSART1_DefaultFramingErrorHandler(), 

    EUSART1_FramingErrorHandler	PTR FTN()void  size(2) Largest target is 1
		 -> Absolute function(), EUSART1_DefaultFramingErrorHandler(), 

    Sendto_Uart@st_pt	PTR unsigned char  size(1) Largest target is 20
		 -> sendbuff(BANK1[20]), 

    IOCCF3_SetInterruptHandler@InterruptHandler	PTR FTN()void  size(2) Largest target is 1
		 -> IOCCF3_DefaultInterruptHandler(), 

    IOCCF3_InterruptHandler	PTR FTN()void  size(2) Largest target is 1
		 -> Absolute function(), IOCCF3_DefaultInterruptHandler(), 

    TMR1_SetInterruptHandler@InterruptHandler	PTR FTN()void  size(2) Largest target is 1
		 -> TMR1_DefaultInterruptHandler(), 

    TMR1_InterruptHandler	PTR FTN()void  size(2) Largest target is 1
		 -> Absolute function(), TMR1_DefaultInterruptHandler(), 


Critical Paths under _main in COMMON

    _vfpfcnvrt->_fputc
    _pad->_fputc
    _fputs->_fputc
    _abs->___aomod
    _Sendto_Uart->_EUSART1_Write
    _TMR1_Initialize->_TMR1_SetInterruptHandler
    _PIN_MANAGER_Initialize->_IOCCF3_SetInterruptHandler
    _EUSART1_Initialize->_EUSART1_SetErrorHandler
    _EUSART1_Initialize->_EUSART1_SetFramingErrorHandler
    _EUSART1_Initialize->_EUSART1_SetOverrunErrorHandler

Critical Paths under _INTERRUPT_InterruptManager in COMMON

    _TMR1_ISR->_TMR1_WriteTimer

Critical Paths under _main in BANK0

    _sprintf->_vfprintf
    _vfprintf->_vfpfcnvrt
    _vfpfcnvrt->_dtoa
    _dtoa->___aodiv
    _pad->_fputs
    _abs->___aomod

Critical Paths under _INTERRUPT_InterruptManager in BANK0

    None.

Critical Paths under _main in BANK1

    _main->_sprintf

Critical Paths under _INTERRUPT_InterruptManager in BANK1

    None.

Critical Paths under _main in BANK2

    None.

Critical Paths under _INTERRUPT_InterruptManager in BANK2

    None.

Critical Paths under _main in BANK3

    None.

Critical Paths under _INTERRUPT_InterruptManager in BANK3

    None.

Critical Paths under _main in BANK4

    None.

Critical Paths under _INTERRUPT_InterruptManager in BANK4

    None.

Critical Paths under _main in BANK5

    None.

Critical Paths under _INTERRUPT_InterruptManager in BANK5

    None.

Critical Paths under _main in BANK6

    None.

Critical Paths under _INTERRUPT_InterruptManager in BANK6

    None.

Call Graph Tables:

 ---------------------------------------------------------------------------------
 (Depth) Function   	        Calls       Base Space   Used Autos Params    Refs
 ---------------------------------------------------------------------------------
 (0) _main                                                 2     2      0    7566
                                             16 BANK1      2     2      0
                      _EUSART1_Write
                  _SYSTEM_Initialize
                        _Sendto_Uart
                     _TMR1_StopTimer
                            _sprintf
 ---------------------------------------------------------------------------------
 (1) _sprintf                                             18    15      3    6954
                                              0 BANK1     16    13      3
                           _vfprintf
 ---------------------------------------------------------------------------------
 (2) _vfprintf                                             8     5      3    6522
                                             72 BANK0      8     5      3
                          _vfpfcnvrt
 ---------------------------------------------------------------------------------
 (3) _vfpfcnvrt                                           40    38      2    6103
                                             56 BANK0     16    14      2
                               _dtoa
                              _fputc
 ---------------------------------------------------------------------------------
 (4) _dtoa                                                30    22      8    4585
                                             26 BANK0     30    22      8
                            ___aodiv
                            ___aomod
                                _abs
                                _pad
 ---------------------------------------------------------------------------------
 (5) _pad                                                  9     6      3    2752
                                              8 BANK0      9     6      3
                              _fputc
                              _fputs
                             _strlen
 ---------------------------------------------------------------------------------
 (6) _strlen                                               5     3      2     123
                                              2 COMMON     5     3      2
 ---------------------------------------------------------------------------------
 (6) _fputs                                                8     7      1    1226
                                              0 BANK0      8     7      1
                              _fputc
 ---------------------------------------------------------------------------------
 (4) _fputc                                                8     5      3     834
                                              2 COMMON     8     5      3
                              _putch
 ---------------------------------------------------------------------------------
 (5) _putch                                                1     1      0       0
 ---------------------------------------------------------------------------------
 (5) _abs                                                  4     2      2     142
                                              5 COMMON     4     2      2
                            ___aomod (ARG)
 ---------------------------------------------------------------------------------
 (5) ___aomod                                             19     3     16     448
                                              2 COMMON     3     3      0
                                              0 BANK0     16     0     16
 ---------------------------------------------------------------------------------
 (5) ___aodiv                                             27    11     16     452
                                              2 COMMON     1     1      0
                                              0 BANK0     26    10     16
 ---------------------------------------------------------------------------------
 (1) _TMR1_StopTimer                                       0     0      0       0
 ---------------------------------------------------------------------------------
 (1) _Sendto_Uart                                          2     2      0     100
                                              3 COMMON     2     2      0
                      _EUSART1_Write
 ---------------------------------------------------------------------------------
 (2) _EUSART1_Write                                        1     1      0      22
                                              2 COMMON     1     1      0
 ---------------------------------------------------------------------------------
 (1) _SYSTEM_Initialize                                    0     0      0     490
                 _EUSART1_Initialize
              _OSCILLATOR_Initialize
             _PIN_MANAGER_Initialize
                     _PMD_Initialize
                    _TMR1_Initialize
 ---------------------------------------------------------------------------------
 (2) _TMR1_Initialize                                      0     0      0      98
           _TMR1_SetInterruptHandler
 ---------------------------------------------------------------------------------
 (3) _TMR1_SetInterruptHandler                             2     0      2      98
                                              2 COMMON     2     0      2
 ---------------------------------------------------------------------------------
 (2) _PMD_Initialize                                       0     0      0       0
 ---------------------------------------------------------------------------------
 (2) _PIN_MANAGER_Initialize                               0     0      0      98
         _IOCCF3_SetInterruptHandler
 ---------------------------------------------------------------------------------
 (3) _IOCCF3_SetInterruptHandler                           2     0      2      98
                                              2 COMMON     2     0      2
 ---------------------------------------------------------------------------------
 (2) _OSCILLATOR_Initialize                                0     0      0       0
 ---------------------------------------------------------------------------------
 (2) _EUSART1_Initialize                                   0     0      0     294
            _EUSART1_SetErrorHandler
     _EUSART1_SetFramingErrorHandler
     _EUSART1_SetOverrunErrorHandler
 ---------------------------------------------------------------------------------
 (3) _EUSART1_SetOverrunErrorHandler                       2     0      2      98
                                              2 COMMON     2     0      2
 ---------------------------------------------------------------------------------
 (3) _EUSART1_SetFramingErrorHandler                       2     0      2      98
                                              2 COMMON     2     0      2
 ---------------------------------------------------------------------------------
 (3) _EUSART1_SetErrorHandler                              2     0      2      98
                                              2 COMMON     2     0      2
 ---------------------------------------------------------------------------------
 Estimated maximum stack depth 6
 ---------------------------------------------------------------------------------
 (Depth) Function   	        Calls       Base Space   Used Autos Params    Refs
 ---------------------------------------------------------------------------------
 (9) _INTERRUPT_InterruptManager                           0     0      0     240
                    _PIN_MANAGER_IOC
                           _TMR1_ISR
 ---------------------------------------------------------------------------------
 (10) _TMR1_ISR                                            0     0      0     240
                    _TMR1_WriteTimer
                   i1_TMR1_StopTimer
 ---------------------------------------------------------------------------------
 (11) i1_TMR1_StopTimer                                    0     0      0       0
 ---------------------------------------------------------------------------------
 (11) _TMR1_WriteTimer                                     2     0      2     240
                                              0 COMMON     2     0      2
 ---------------------------------------------------------------------------------
 (10) _PIN_MANAGER_IOC                                     0     0      0       0
                         _IOCCF3_ISR
 ---------------------------------------------------------------------------------
 (11) _IOCCF3_ISR                                          0     0      0       0
                    _TMR1_StartTimer
 ---------------------------------------------------------------------------------
 (12) _TMR1_StartTimer                                     0     0      0       0
 ---------------------------------------------------------------------------------
 Estimated maximum stack depth 12
 ---------------------------------------------------------------------------------

 Call Graph Graphs:

 _main (ROOT)
   _EUSART1_Write
   _SYSTEM_Initialize
     _EUSART1_Initialize
       _EUSART1_SetErrorHandler
       _EUSART1_SetFramingErrorHandler
       _EUSART1_SetOverrunErrorHandler
     _OSCILLATOR_Initialize
     _PIN_MANAGER_Initialize
       _IOCCF3_SetInterruptHandler
     _PMD_Initialize
     _TMR1_Initialize
       _TMR1_SetInterruptHandler
   _Sendto_Uart
     _EUSART1_Write
   _TMR1_StopTimer
   _sprintf
     _vfprintf
       _vfpfcnvrt
         _dtoa
           ___aodiv
           ___aomod
           _abs
             ___aomod (ARG)
           _pad
             _fputc
               _putch
             _fputs
               _fputc
             _strlen
         _fputc

 _INTERRUPT_InterruptManager (ROOT)
   _PIN_MANAGER_IOC
     _IOCCF3_ISR
       _TMR1_StartTimer
   _TMR1_ISR
     _TMR1_WriteTimer
     i1_TMR1_StopTimer

 Address spaces:
Name               Size   Autos  Total    Cost      Usage
BIGRAM             1F0      0       0       0        0.0%
NULL                 0      0       0       0        0.0%
CODE                 0      0       0       0        0.0%
BITCOMMON            E      0       0       1        0.0%
BITSFR0              0      0       0       1        0.0%
SFR0                 0      0       0       1        0.0%
COMMON               E      A       C       2       85.7%
BITSFR1              0      0       0       2        0.0%
SFR1                 0      0       0       2        0.0%
BITSFR2              0      0       0       3        0.0%
SFR2                 0      0       0       3        0.0%
STACK                0      0       0       3        0.0%
BITSFR3              0      0       0       4        0.0%
SFR3                 0      0       0       4        0.0%
ABS                  0      0      CD       4        0.0%
BITBANK0            50      0       0       5        0.0%
BITSFR4              0      0       0       5        0.0%
SFR4                 0      0       0       5        0.0%
BANK0               50     50      50       6      100.0%
BITSFR5              0      0       0       6        0.0%
SFR5                 0      0       0       6        0.0%
BITBANK1            50      0       0       7        0.0%
BITSFR6              0      0       0       7        0.0%
SFR6                 0      0       0       7        0.0%
BANK1               50     12      4F       8       98.8%
BITSFR7              0      0       0       8        0.0%
SFR7                 0      0       0       8        0.0%
BITBANK2            50      0       0       9        0.0%
BITSFR8              0      0       0       9        0.0%
SFR8                 0      0       0       9        0.0%
BANK2               50      0      22      10       42.5%
BITSFR9              0      0       0      10        0.0%
SFR9                 0      0       0      10        0.0%
BITBANK3            50      0       0      11        0.0%
BITSFR10             0      0       0      11        0.0%
SFR10                0      0       0      11        0.0%
BANK3               50      0       0      12        0.0%
BITSFR11             0      0       0      12        0.0%
SFR11                0      0       0      12        0.0%
BITBANK4            50      0       0      13        0.0%
BITSFR12             0      0       0      13        0.0%
SFR12                0      0       0      13        0.0%
BANK4               50      0       0      14        0.0%
BITSFR13             0      0       0      14        0.0%
SFR13                0      0       0      14        0.0%
BITBANK5            50      0       0      15        0.0%
BITSFR14             0      0       0      15        0.0%
SFR14                0      0       0      15        0.0%
BANK5               50      0       0      16        0.0%
BITSFR15             0      0       0      16        0.0%
SFR15                0      0       0      16        0.0%
BITBANK6            10      0       0      17        0.0%
BITSFR16             0      0       0      17        0.0%
SFR16                0      0       0      17        0.0%
BANK6               10      0       0      18        0.0%
BITSFR17             0      0       0      18        0.0%
SFR17                0      0       0      18        0.0%
BITSFR18             0      0       0      19        0.0%
SFR18                0      0       0      19        0.0%
DATA                 0      0      CD      19        0.0%
BITSFR19             0      0       0      20        0.0%
SFR19                0      0       0      20        0.0%
BITSFR20             0      0       0      21        0.0%
SFR20                0      0       0      21        0.0%
BITSFR21             0      0       0      22        0.0%
SFR21                0      0       0      22        0.0%
BITSFR22             0      0       0      23        0.0%
SFR22                0      0       0      23        0.0%
BITSFR23             0      0       0      24        0.0%
SFR23                0      0       0      24        0.0%
BITSFR24             0      0       0      25        0.0%
SFR24                0      0       0      25        0.0%
BITSFR25             0      0       0      26        0.0%
SFR25                0      0       0      26        0.0%
BITSFR26             0      0       0      27        0.0%
SFR26                0      0       0      27        0.0%
BITSFR27             0      0       0      28        0.0%
SFR27                0      0       0      28        0.0%
BITSFR28             0      0       0      29        0.0%
SFR28                0      0       0      29        0.0%
BITSFR29             0      0       0      30        0.0%
SFR29                0      0       0      30        0.0%
BITSFR30             0      0       0      31        0.0%
SFR30                0      0       0      31        0.0%
BITSFR31             0      0       0      32        0.0%
SFR31                0      0       0      32        0.0%
BITSFR32             0      0       0      33        0.0%
SFR32                0      0       0      33        0.0%
BITSFR33             0      0       0      34        0.0%
SFR33                0      0       0      34        0.0%
BITSFR34             0      0       0      35        0.0%
SFR34                0      0       0      35        0.0%
BITSFR35             0      0       0      36        0.0%
SFR35                0      0       0      36        0.0%
BITSFR36             0      0       0      37        0.0%
SFR36                0      0       0      37        0.0%
BITSFR37             0      0       0      38        0.0%
SFR37                0      0       0      38        0.0%
BITSFR38             0      0       0      39        0.0%
SFR38                0      0       0      39        0.0%
BITSFR39             0      0       0      40        0.0%
SFR39                0      0       0      40        0.0%
BITSFR40             0      0       0      41        0.0%
SFR40                0      0       0      41        0.0%
BITSFR41             0      0       0      42        0.0%
SFR41                0      0       0      42        0.0%
BITSFR42             0      0       0      43        0.0%
SFR42                0      0       0      43        0.0%
BITSFR43             0      0       0      44        0.0%
SFR43                0      0       0      44        0.0%
BITSFR44             0      0       0      45        0.0%
SFR44                0      0       0      45        0.0%
BITSFR45             0      0       0      46        0.0%
SFR45                0      0       0      46        0.0%
BITSFR46             0      0       0      47        0.0%
SFR46                0      0       0      47        0.0%
BITSFR47             0      0       0      48        0.0%
SFR47                0      0       0      48        0.0%
BITSFR48             0      0       0      49        0.0%
SFR48                0      0       0      49        0.0%
BITSFR49             0      0       0      50        0.0%
SFR49                0      0       0      50        0.0%
BITSFR50             0      0       0      51        0.0%
SFR50                0      0       0      51        0.0%
BITSFR51             0      0       0      52        0.0%
SFR51                0      0       0      52        0.0%
BITSFR52             0      0       0      53        0.0%
SFR52                0      0       0      53        0.0%
BITSFR53             0      0       0      54        0.0%
SFR53                0      0       0      54        0.0%
BITSFR54             0      0       0      55        0.0%
SFR54                0      0       0      55        0.0%
BITSFR55             0      0       0      56        0.0%
SFR55                0      0       0      56        0.0%
BITSFR56             0      0       0      57        0.0%
SFR56                0      0       0      57        0.0%
BITSFR57             0      0       0      58        0.0%
SFR57                0      0       0      58        0.0%
BITSFR58             0      0       0      59        0.0%
SFR58                0      0       0      59        0.0%
BITSFR59             0      0       0      60        0.0%
SFR59                0      0       0      60        0.0%
BITSFR60             0      0       0      61        0.0%
SFR60                0      0       0      61        0.0%
BITSFR61             0      0       0      62        0.0%
SFR61                0      0       0      62        0.0%
BITSFR62             0      0       0      63        0.0%
SFR62                0      0       0      63        0.0%
BITSFR63             0      0       0      64        0.0%
SFR63                0      0       0      64        0.0%


Microchip Technology PIC Macro Assembler V2.35 build 20211206165544 
Symbol Table                                                                                   Fri Apr 15 14:54:36 2022

                                            l40 06FB                                              l43 070C  
                                            l37 06DC                                             l111 073A  
                                           l105 0671                                             l212 057D  
                                           l301 0651                                             l222 0725  
                                           l142 071F                                             l340 0731  
                                           l325 06E9                                             l343 072B  
                                           l328 06F1                                             l249 06BB  
                                           l346 0737                                             l514 0298  
                                           l515 02A9                                             l527 0382  
                                           l528 0393                                             l904 0489  
                                           l912 0086                                             l921 0132  
                                           l913 008F                                             l907 04AB  
                                           l909 04C4                                             l917 00AC  
                                           l918 00C2                                             l942 046E  
                                           l935 01A5                                             l953 06A5  
                                           l956 06A5                                             l949 05AE  
                                           l877 062F                                             l968 0516  
                                           l976 0607                                             l985 068B  
                                           l979 0741                                             u700 04CF  
                                           u701 04CE                                             u710 04DE  
                                           u711 04DD                                             u800 0219  
                                           u720 04FC                                             u801 0218  
                                           u721 04FB                                             u810 022C  
                                           u811 022B                                             u820 0256  
                                           u900 030C                                             u740 0685  
                                           u821 0255                                             u901 030B  
                                           u725 04F8                                             u741 0684  
                                           u830 0275                                             u750 01B2  
                                           u910 031F                                             u831 0274  
                                           u751 01B1                                             u911 031E  
                                           u840 027A                                             u920 0341  
                                           u841 0279                                             u825 0252  
                                           u921 0340                                             u770 01DE  
                                           u930 035F                                             u690 04CA  
                                           u771 01DD                                             u931 035E  
                                           u691 04C9                                             u940 0364  
                                           u860 02B5                                             u941 0363  
                                           u925 033D                                             u861 02B4  
                                           u790 0209                                             u880 02E0  
                                           u881 02DF                                 _timer1ReloadVal 00ED  
                                           _abs 068C                                             _pad 046F  
                                           wreg 0009              __end_of_IOCCF3_SetInterruptHandler 0726  
                    _IOCCF3_SetInterruptHandler 0720                                            l2001 0101  
                                          l2011 0168                                            l2003 0105  
                                          ?_abs 0075                                            l2021 0181  
                                          l2005 0140                                            l2013 016C  
                                          l2101 051A                                            l2023 0186  
                                          l2015 0173                                            l2007 014D  
                                          l2031 0396                                            l2111 0532  
                                          l2103 051D                                            l2025 018A  
                                          l2017 0177                                            l2009 015A  
                                          l2041 03CA                                            l2033 03A7  
                                          l2113 0536                                            l2105 051E  
                                          l2019 017B                                            l2027 0193  
                                          l2051 0416                                            l2043 03DB  
                                          l2035 03AF                                            l2115 053A  
                                          l2107 051F                                            l2053 0427  
                                          l2061 0440                                            l2045 03E3  
                                          l2037 03B4                                            l2109 0526  
                                          l2117 053D                                            l1511 0685  
                                          l2063 0448                                            l2055 042F  
                                          l2047 03FC                                            l2039 03B8  
                                          l1521 01D4                                            l1505 0673  
                                          l2057 043A                                            l2081 059C  
                                          l1531 0219                                            l1523 01DE  
                                          l1515 01A6                                            l1507 0678  
                                          l2067 044B                                            l2083 05A6  
                                          l2075 0580                                            l2091 0614  
                                          l1541 0234                                            l1533 021C  
                                          l1525 01FD                                            l1517 01A8  
                                          l1605 068C                                            l1509 067C  
                                          l2069 0464                                            l2077 0584  
                                          l2093 0616                                            l1551 027A  
                                          l1543 0256                                            l1535 0224  
                                          l1527 0202                                            l1519 01B2  
                                          l1607 0699                                            l2079 0588  
                                          l2095 0627                                            l2087 060A  
                                          l1801 0641                                            l1545 0266  
                                          l1537 0228                                            l1529 020C  
                                          l1561 02E0                                            l1553 02AA  
                                          l1481 04C5                                            l2089 0612  
                                          l1803 0648                                            l1731 0554  
                                          l1723 0705                                            l1547 0267  
                                          l1539 022C                                            l1571 031B  
                                          l1563 02FF                                            l1555 02AB  
                                          l1491 04FC                                            l1483 04CA  
                                          l2099 0517                                            l1805 064F  
                                          l1741 0561                                            l1733 0556  
                                          l1725 054C                                            l1549 0275  
                                          l1581 0364                                            l1573 031F  
                                          l1565 030C                                            l1557 02B5  
                                          l1493 050D                                            l1485 04CF  
                                          l1671 0720                                            l1751 0569  
                                          l1743 0562                                            l1735 0559  
                                          l1727 0550                                            l1831 06EE  
                                          l1575 0341                                            l1567 030F  
                                          l1559 02D6                                            l1487 04D4  
                                          l1673 072C                                            l1761 0571  
                                          l1753 056B                                            l1745 0563  
                                          l1737 055B                                            l1729 0552  
                                          l1577 0351                                            l1569 0317  
                                          l1489 04DE                                            l1675 0726  
                                          l1771 06F6                                            l1763 0578  
                                          l1755 056E                                            l1747 0566  
                                          l1739 055F                                            l1667 071A  
                                          l1851 06D3                                            l1579 035F  
                                          l1677 0732                                            l1773 06F9  
                                          l1765 057A                                            l1757 056F  
                                          l1749 0567                                            l1781 0657  
                                          l1853 06D6                                            l1829 06E9  
                                          l1775 06FA                                            l1767 06F2  
                                          l1759 0570                                            l1791 0667  
                                          l1783 0659                                            l1855 06D9  
                                          l1847 06CD                                            l1943 05E1  
                                          l1951 0471                                            l1769 06F5  
                                          l1793 066E                                            l1785 065B  
                                          l1777 0652                                            l1849 06D0  
                                          l1881 06AF                                            l1945 05E4  
                                          l1961 048C                                            l1953 0475  
                                          l1795 0630                                            l1787 065D  
                                          l1779 0655                                            l1883 06B3  
                                          l1875 0738                                            l1947 05F2  
                                          l1963 0498                                            l1955 047D  
                                          l1797 0639                                            l1789 0665  
                                          l1877 06A7                                            l1949 05F7  
                                          l1965 049D                                            l1957 0482  
                                          l1981 008B                                            l1973 003F  
                                          ?_pad 0028                                            l1799 063A  
                                          l1879 06A8                                            l1967 04AF  
                                          l1959 0487                                            l1991 00BE  
                                          l1983 009E                                            l1975 004F  
                                          l1969 04B8                                            l1993 00C6  
                                          l1985 00A4                                            l1977 0062  
                                          l1995 00C9                                            l1987 00B4  
                                          l1979 0068                                            l1997 00CE  
                                          l1989 00BA                                            l1999 00FD  
                                          STR_1 070D                                            u1000 0699  
                                          u1001 0698                                            u1005 0695  
                                          u1220 06EE                                            u1221 06ED  
                                          u1400 005A                                            u1401 0058  
                                          u1410 005B                                            u1260 06BB  
                                          u1500 015A                                            u1420 0068  
                                          u1261 06BA                                            u1501 0159  
                                          u1421 0067                                            _LATA 0018  
                                          u1350 0607                                            u1510 0168  
                                          _LATB 0019                                            u1351 0606  
                                          u1511 0167                                            _LATC 001A  
                                          u1360 0475                                            u1520 016C  
                                          u1440 008B                                            u1600 05A6  
                                          u1361 0474                                            u1521 016B  
                                          u1505 0156                                            u1441 008A  
                                          u1601 05A5                                            u1370 0482  
                                          u1530 0173                                            u1450 009E  
                                          u1610 0526                                            u1371 0481  
                                          u1531 0172                                            u1515 0164  
                                          u1451 009D                                            u1611 0525  
                                          u1380 04AB                                            u1540 0177  
                                          u1460 00BA                                            u1381 04AA  
                                          u1541 0176                                            u1461 00B9  
                                          u1390 04AF                                            u1550 0181  
                                          u1470 00BE                                            u1391 04AE  
                                          u1551 0180                                            u1471 00BD  
                                          u1455 009A                                            u1480 0140  
                                          u1560 03A7                                            u1385 04A7  
                                          u1481 013F                                            u1561 03A6  
                                          u1490 014D                                            u1570 03CA  
                                          u1491 014C                                            u1571 03C9  
                                          u1627 0543                                            u1580 03DB  
                                          u1485 013C                                            u1581 03DA  
                                          u1590 0427                                            u1591 0426  
                                          _PMD0 0796                                            _PMD1 0797  
                                          _PMD2 0798                                            _PMD3 0799  
                                          _PMD4 079A                                            _PMD5 079B  
                                          i1l62 0013                                            i1l67 0023  
                                          i1l68 0023                                            _WPUA 1F39  
                                          _WPUB 1F44                                            _WPUC 1F4F  
                                          _Buff 00BF                                   _EUSART1_Write 06E8  
                                          abs@a 0075                                            _dbuf 0120  
                                          _main 0517                                            _dtoa 003D  
                                          _prec 00A4                                            _nout 00A0  
                                          pad@i 002C                                            pad@p 0029  
                                          fsr0h 0005                                            fsr1h 0007  
                                          indf0 0000                                            fsr0l 0004  
                                          indf1 0001                                            fsr1l 0006  
                                          pad@w 002E                                            btemp 007E  
                                          start 0025                      ??_TMR1_SetInterruptHandler 0074  
                                         ??_abs 0077                                           ??_pad 002B  
                      __end_ofi1_TMR1_StopTimer 073E                   __end_of_OSCILLATOR_Initialize 06FC  
                               __end_of___aodiv 02AA                                           ?_main 0070  
                                         ?_dtoa 003A                                 __end_of___aomod 0394  
                               _TMR1_StartTimer 073E                                           _T1CLK 0211  
                                         _T1CON 020E                                           i1l111 073D  
                                         i1l108 0740                                           i1l119 06CC  
                                         i1l216 0704                                           i1l137 05D2  
                                         i1l219 06E7                                           i1l139 05DE  
                                         _OSCEN 0891                                    vfpfcnvrt@fmt 0058  
                                         _TMR1H 020D                                           _TMR1L 020C  
                                         _TRISA 0012                                           _TRISB 0013  
                                         _TRISC 0014                                           u76lld 01D1  
                                         u85lld 0298                                           u78lld 01FD  
                                         u95lld 0382                                           u87lld 02D4  
                                         u89lld 02FF                                __end_of_TMR1_ISR 05DF  
                       __end_of_PIN_MANAGER_IOC 0705                                           _flags 007A  
                                         _count 00A6                                           _fputc 04C5  
                                         _fputs 05DF                                           pad@fp 0030  
                                         _width 00A2                                           _putch 0741  
                                         dtoa@d 003A                                           dtoa@i 0056  
                                         dtoa@n 004E                                           dtoa@p 0048  
                                         dtoa@s 004C                                           dtoa@w 004A  
                                ?_EUSART1_Write 0070                         __end_of_TMR1_Initialize 0672  
                                         status 0003                                           wtemp0 007E  
                               __end_of_sprintf 0630              _EUSART1_DefaultFramingErrorHandler 0000  
                               _TMR1_WriteTimer 06BC                                 __initialization 0027  
                    __end_of_EUSART1_Initialize 0652                                    __end_of_main 054C  
                                  __end_of_dtoa 01A6                     ?_INTERRUPT_InterruptManager 0070  
                                        ??_main 00E3                                          ??_dtoa 0042  
                                        ?_fputc 0072                                          ?_fputs 0020  
                                        _ANSELA 1F38                                          ?_putch 0070  
                                        _ANSELB 1F43                                          _ANSELC 1F4E  
                                        _T1GATE 0210                                          _T1GCON 020F  
                                        _RC1REG 0119                                          _RC1STA 011D  
                       TMR1_WriteTimer@timerVal 0070                                          _RC5PPS 1F25  
                                        _ODCONA 1F3A                                          _ODCONB 1F45  
                                        _ODCONC 1F50                                          u121_20 06C1  
                                        u121_21 06C0                                          i1l1811 06C2  
                                        i1l1821 06DD                                          i1l1813 06C4  
                                        i1l1901 000F                                          i1l1823 06E0  
                                        i1l1815 06C6                                          i1l1807 06BC  
                                        i1l1903 0017                                          u130_20 001B  
                                        i1l1825 06E2                                          i1l1809 06C1  
                                        i1l1817 06C8                                          i1l1905 001B  
                                        u130_21 001A                                          i1l1827 06E4  
                                        i1l1819 06CA                                          i1l1907 001F  
                                        i1l1669 073E                                          i1l1845 073B  
                                        i1l1861 05AF                                          i1l1871 05D6  
                                        i1l1863 05B1                                          u131_20 001F  
                                        i1l1857 06FC                                          i1l1873 05D9  
                                        i1l1865 05B9                                          u131_21 001E  
                                        i1l1859 0701                                          i1l1867 05C3  
                                        i1l1869 05CC                                          u124_20 0701  
                                        u124_21 0700                                          i1l1897 0006  
                                        i1l1899 000B                                          u125_20 05C3  
                                        u125_21 05C2                                          u127_20 000B  
                                        u127_21 000A                                          u128_20 000F  
                                        u128_21 000E                                          _INLVLA 1F3C  
                                        _INLVLB 1F47                                          _INLVLC 1F52  
                                        u129_20 0017                                          u129_21 0016  
                                 ??_Sendto_Uart 0073                                          _OSCFRQ 0893  
                                        u143lld 0086                                          _TX1REG 011A  
                                        _TX1STA 011E                    _TMR1_DefaultInterruptHandler 0000  
                                  vfprintf@cfmt 006E                         __end_of_TMR1_StartTimer 0741  
                                     ??___aodiv 0072                                       ??___aomod 0072  
                      ?_EUSART1_SetErrorHandler 0072                                          pad@buf 0028  
              ??_EUSART1_SetOverrunErrorHandler 0074                 ?_EUSART1_SetOverrunErrorHandler 0072  
                                        dtoa@fp 0045                                          _strlen 0672  
                                        fputc@c 0072                                  _PMD_Initialize 0705  
                                        fputs@c 0024                                          fputs@i 0025  
                                        fputs@s 0027                                          putch@c 0070  
                              __end_of_vfprintf 05AF                                 ??_EUSART1_Write 0072  
    IOCCF3_SetInterruptHandler@InterruptHandler 0072        TMR1_SetInterruptHandler@InterruptHandler 0072  
                              ?_PIN_MANAGER_IOC 0070                                       ??_sprintf 00D6  
                       __end_of_TMR1_WriteTimer 06CD                                    ??_IOCCF3_ISR 0070  
                              ?_TMR1_Initialize 0070                               _SYSTEM_Initialize 06CD  
                       __end_of__initialization 0039                              ?_SYSTEM_Initialize 0070  
                           __end_of_Sendto_Uart 06BC                                  __pcstackCOMMON 0070  
                           ??_SYSTEM_Initialize 0074                                       ?_TMR1_ISR 0070  
                                 __end_of_fputc 0517                                   __end_of_fputs 0608  
                                 __end_of_putch 0742                          __end_of_PMD_Initialize 070D  
                            __end_of_IOCCF3_ISR 06E8                     ?_IOCCF3_SetInterruptHandler 0072  
                                       ??_fputc 0075                       __end_of_SYSTEM_Initialize 06DD  
                                       ??_fputs 0021                                         ??_putch 0072  
                                    __pbssBANK1 00A0                                      __pbssBANK2 0120  
                       _IOCCF3_InterruptHandler 00E9                 __end_of_EUSART1_SetErrorHandler 0738  
                                    __pmaintext 0517                                ?_TMR1_StartTimer 0070  
                                    ??_TMR1_ISR 0072                                      __pintentry 0004  
                               ?_PMD_Initialize 0070                               ?i1_TMR1_StopTimer 0070  
                                       ?_strlen 0072          __end_of_EUSART1_SetFramingErrorHandler 0732  
                _EUSART1_SetFramingErrorHandler 072C                              ??i1_TMR1_StopTimer 0070  
                                       _SP1BRGH 011C                                         _SP1BRGL 011B  
                                       _OSCCON1 088D                                         _OSCCON3 088F  
                                       _OSCSTAT 0890                                         _OSCTUNE 0892  
                                       _SLRCONA 1F3B                                         _SLRCONB 1F46  
                                       _SLRCONC 1F51                                ?_TMR1_WriteTimer 0070  
                                   _Sendto_Uart 06A6                                         _GotData 00A8  
                                       ___aodiv 01A6                                         ___aomod 02AA  
                                     ?_vfprintf 0068                                         __ptext1 0608  
                                       __ptext2 057E                                         __ptext3 0394  
                                       __ptext4 003D                                         __ptext5 046F  
                                       __ptext6 0672                                         __ptext7 05DF  
                                       __ptext8 04C5                                         __ptext9 0741  
                                     _T1CONbits 020E                           _OSCILLATOR_Initialize 06F2  
                            _EUSART1_Initialize 0630                        ??_PIN_MANAGER_Initialize 0074  
                     ?_TMR1_SetInterruptHandler 0072                                       _IOCCFbits 1F55  
                                     _IOCCNbits 1F54                                       _IOCCPbits 1F53  
                                       _sprintf 0608                                         clrloop0 0715  
                          end_of_initialization 0039                             ?_EUSART1_Initialize 0070  
                                       fputc@fp 0074                     _EUSART1_OverrunErrorHandler 00E5  
                                       fputs@fp 0020                               __end_of_vfpfcnvrt 046F  
                                    ??_vfprintf 006B                            ??_EUSART1_Initialize 0074  
                                       strlen@a 0075                                         strlen@s 0076  
                                     _PORTCbits 000E                             EUSART1_Write@txData 0072  
                                   vfpfcnvrt@ap 0059                                     vfpfcnvrt@fp 0067  
                                   vfpfcnvrt@ll 005F                                  _TMR1_StopTimer 0738  
                        ?_OSCILLATOR_Initialize 0070                                  __end_of_strlen 068C  
                           start_initialization 0027                                     __end_of_abs 06A6  
                                   __end_of_pad 04C5                           __end_of_EUSART1_Write 06F2  
                                   vfprintf@fmt 0068                                ??_PMD_Initialize 0072  
                        __end_of_TMR1_StopTimer 073B                                        ??_strlen 0074  
                                   __pbssCOMMON 007A                                       ___latbits 0001  
                                 __pcstackBANK0 0020                                   __pcstackBANK1 00D3  
                              ___aodiv@dividend 0028                ??_EUSART1_SetFramingErrorHandler 0074  
               ?_EUSART1_SetFramingErrorHandler 0072                                    ?_Sendto_Uart 0070  
                                     __pnvBANK1 00E5                                       __pnvBANK2 0140  
                        _PIN_MANAGER_Initialize 054C                                       _dtoa$1094 0046  
                _IOCCF3_DefaultInterruptHandler 0000                __end_of_TMR1_SetInterruptHandler 0720  
                                      ?___aodiv 0020                                        ?___aomod 0020  
                              ___aodiv@quotient 0032                                 ?_TMR1_StopTimer 0070  
                  ??_INTERRUPT_InterruptManager 0072                                        _BAUD1CON 011F  
            _EUSART1_DefaultOverrunErrorHandler 0000                            _EUSART1_ErrorHandler 0140  
                       _EUSART1_SetErrorHandler 0732                                        ?_sprintf 00D3  
       EUSART1_SetErrorHandler@interruptHandler 0072                                       clear_ram0 0714  
                                      _PIE0bits 0716                                        _PIE4bits 071A  
                                      _PIR0bits 070C                                        _PIR3bits 070F  
                                      _PIR4bits 0710                                        _TMR1_ISR 05AF  
                             ??_PIN_MANAGER_IOC 0070                                       _vfpfcnvrt 0394  
                             ??_TMR1_Initialize 0074                                Sendto_Uart@st_pt 0074  
                                    vfprintf@ap 006A                                      vfprintf@fp 006D  
                       ??_OSCILLATOR_Initialize 0072                                      ?_vfpfcnvrt 0058  
                               ___aodiv@divisor 0020                        _TMR1_SetInterruptHandler 071A  
                               ___aodiv@counter 0030                           _TMR1_InterruptHandler 00EB  
                     ??_EUSART1_SetErrorHandler 0074                     _EUSART1_DefaultErrorHandler 0000  
                                    sprintf@fmt 00D3                                        __ptext10 068C  
                                      __ptext11 02AA                                        __ptext20 054C  
                                      __ptext12 01A6                                        __ptext21 0720  
                                      __ptext13 0738                                      _T1GCONbits 020F  
                                      __ptext30 06BC                                        __ptext22 06F2  
                                      __ptext14 06A6                                        __ptext31 06FC  
                                      __ptext23 0630                                        __ptext15 06E8  
                                      __ptext32 06DD                                        __ptext24 0726  
                                      __ptext16 06CD                                        __ptext33 073E  
                                      __ptext25 072C                                        __ptext17 0652  
                                      __ptext26 0732                                        __ptext18 071A  
                                      __ptext19 0705                                        __ptext28 05AF  
                                      __ptext29 073B                    ??_IOCCF3_SetInterruptHandler 0074  
                             ??_TMR1_StartTimer 0070                                      _IOCCF3_ISR 06DD  
                              i1_TMR1_StopTimer 073B                                        _sendbuff 00AB  
                                    _RC1STAbits 011D  EUSART1_SetOverrunErrorHandler@interruptHandler 0072  
                                      int$flags 007E                                        _vfprintf 057E  
            __end_of_INTERRUPT_InterruptManager 0025                      _INTERRUPT_InterruptManager 0004  
                             ??_TMR1_WriteTimer 0072                     _EUSART1_FramingErrorHandler 00E7  
                              ___aomod@dividend 0028                                      _INTCONbits 000B  
                                      intlevel1 0000                                       sprintf@ap 00D7  
                       ?_PIN_MANAGER_Initialize 0070          __end_of_EUSART1_SetOverrunErrorHandler 072C  
                _EUSART1_SetOverrunErrorHandler 0726                                ??_TMR1_StopTimer 0072  
EUSART1_SetFramingErrorHandler@interruptHandler 0072                                 ___aomod@divisor 0020  
                                   ??_vfpfcnvrt 005A                                 ___aomod@counter 0073  
                            _eusart1RxLastError 00AA                                   __pstringtext1 070D  
                                 __pstringtext2 0000                                        sprintf@f 00D9  
                                      sprintf@s 00D8                                      _TX1STAbits 011E  
                                  ___aodiv@sign 0031                                     ?_IOCCF3_ISR 0070  
                __end_of_PIN_MANAGER_Initialize 057E                                 _PIN_MANAGER_IOC 06FC  
                                  ___aomod@sign 0074                                 _TMR1_Initialize 0652  
