

Microchip MPLAB XC8 Assembler V2.35 build 20211206165544 
                                                                                               Wed Apr 20 12:17:32 2022

Microchip MPLAB XC8 C Compiler v2.35 (Free license) build 20211206165544 Og1 
     1                           	processor	16F15344
     2                           	pagewidth 120
     3                           	opt	flic
     4                           	psect	nvCOMMON,global,class=COMMON,space=1,delta=1,noexec
     5                           	psect	nvBANK0,global,class=BANK0,space=1,delta=1,noexec
     6                           	psect	cinit,global,class=CODE,merge=1,delta=2
     7                           	psect	bssBANK0,global,class=BANK0,space=1,delta=1,noexec
     8                           	psect	clrtext,global,class=CODE,delta=2
     9                           	psect	cstackCOMMON,global,class=COMMON,space=1,delta=1,noexec
    10                           	psect	cstackBANK0,global,class=BANK0,space=1,delta=1,noexec
    11                           	psect	maintext,global,class=CODE,merge=1,split=1,delta=2
    12                           	psect	text1,local,class=CODE,merge=1,delta=2
    13                           	psect	text2,local,class=CODE,merge=1,delta=2
    14                           	psect	text3,local,class=CODE,merge=1,delta=2
    15                           	psect	text4,local,class=CODE,merge=1,delta=2
    16                           	psect	text5,local,class=CODE,merge=1,delta=2
    17                           	psect	text6,local,class=CODE,merge=1,delta=2
    18                           	psect	text7,local,class=CODE,merge=1,delta=2
    19                           	psect	text8,local,class=CODE,merge=1,delta=2
    20                           	psect	intentry,global,class=CODE,delta=2
    21                           	psect	text10,local,class=CODE,merge=1,delta=2
    22                           	psect	text11,local,class=CODE,merge=1,delta=2
    23                           	psect	text12,local,class=CODE,merge=1,delta=2
    24                           	psect	text13,local,class=CODE,merge=1,delta=2
    25                           	psect	text14,local,class=CODE,merge=1,delta=2
    26                           	psect	text15,local,class=CODE,merge=1,delta=2
    27                           	psect	text16,local,class=CODE,merge=1,delta=2
    28                           	psect	text17,local,class=CODE,merge=1,delta=2
    29                           	psect	text18,local,class=CODE,merge=1,delta=2
    30                           	psect	text19,local,class=CODE,merge=1,delta=2,group=1
    31                           	psect	idloc,global,abs,ovrld,class=IDLOC,space=5,delta=2,noexec
    32                           	psect	config,global,abs,ovrld,class=CONFIG,space=4,delta=2,noexec
    33                           	dabs	1,0x7E,2
    34  0000                     
    35                           ; Version 2.40
    36                           ; Generated 19/01/2022 GMT
    37                           ; 
    38                           ; Copyright © 2022, Microchip Technology Inc. and its subsidiaries ("Microchip")
    39                           ; All rights reserved.
    40                           ; 
    41                           ; This software is developed by Microchip Technology Inc. and its subsidiaries ("Microch
      +                          ip").
    42                           ; 
    43                           ; Redistribution and use in source and binary forms, with or without modification, are
    44                           ; permitted provided that the following conditions are met:
    45                           ; 
    46                           ;     1. Redistributions of source code must retain the above copyright notice, this lis
      +                          t of
    47                           ;        conditions and the following disclaimer.
    48                           ; 
    49                           ;     2. Redistributions in binary form must reproduce the above copyright notice, this 
      +                          list
    50                           ;        of conditions and the following disclaimer in the documentation and/or other
    51                           ;        materials provided with the distribution. Publication is not required when
    52                           ;        this file is used in an embedded application.
    53                           ; 
    54                           ;     3. Microchip's name may not be used to endorse or promote products derived from th
      +                          is
    55                           ;        software without specific prior written permission.
    56                           ; 
    57                           ; THIS SOFTWARE IS PROVIDED BY MICROCHIP "AS IS" AND ANY EXPRESS OR IMPLIED WARRANTIES,
    58                           ; INCLUDING, BUT NOT LIMITED TO, THE IMPLIED WARRANTIES OF MERCHANTABILITY AND FITNESS F
      +                          OR
    59                           ; PURPOSE ARE DISCLAIMED.  IN NO EVENT SHALL MICROCHIP BE LIABLE FOR ANY DIRECT, INDIREC
      +                          T,
    60                           ; INCIDENTAL, SPECIAL, EXEMPLARY, OR CONSEQUENTIAL DAMAGES (INCLUDING BUT NOT LIMITED TO
    61                           ; PROCUREMENT OF SUBSTITUTE GOODS OR SERVICES; LOSS OF USE, DATA OR PROFITS; OR BUSINESS
    62                           ; INTERRUPTION) HOWSOEVER CAUSED AND ON ANY THEORY OF LIABILITY, WHETHER IN CONTRACT, ST
      +                          RICT
    63                           ; LIABILITY, OR TORT (INCLUDING NEGLIGENCE OR OTHERWISE) ARISING IN ANY WAY OUT OF THE U
      +                          SE OF
    64                           ; THIS SOFTWARE, EVEN IF ADVISED OF THE POSSIBILITY OF SUCH DAMAGE.
    65                           ; 
    66                           ; 
    67                           ; Code-generator required, PIC16F15344 Definitions
    68                           ; 
    69                           ; SFR Addresses
    70  0000                     	;# 
    71  0001                     	;# 
    72  0002                     	;# 
    73  0003                     	;# 
    74  0004                     	;# 
    75  0005                     	;# 
    76  0006                     	;# 
    77  0007                     	;# 
    78  0008                     	;# 
    79  0009                     	;# 
    80  000A                     	;# 
    81  000B                     	;# 
    82  000C                     	;# 
    83  000D                     	;# 
    84  000E                     	;# 
    85  0012                     	;# 
    86  0013                     	;# 
    87  0014                     	;# 
    88  0018                     	;# 
    89  0019                     	;# 
    90  001A                     	;# 
    91  009B                     	;# 
    92  009B                     	;# 
    93  009C                     	;# 
    94  009D                     	;# 
    95  009E                     	;# 
    96  009F                     	;# 
    97  0119                     	;# 
    98  0119                     	;# 
    99  0119                     	;# 
   100  011A                     	;# 
   101  011A                     	;# 
   102  011A                     	;# 
   103  011B                     	;# 
   104  011B                     	;# 
   105  011B                     	;# 
   106  011B                     	;# 
   107  011B                     	;# 
   108  011C                     	;# 
   109  011C                     	;# 
   110  011C                     	;# 
   111  011D                     	;# 
   112  011D                     	;# 
   113  011D                     	;# 
   114  011E                     	;# 
   115  011E                     	;# 
   116  011E                     	;# 
   117  011F                     	;# 
   118  011F                     	;# 
   119  011F                     	;# 
   120  011F                     	;# 
   121  011F                     	;# 
   122  018C                     	;# 
   123  018D                     	;# 
   124  018E                     	;# 
   125  018F                     	;# 
   126  0190                     	;# 
   127  0191                     	;# 
   128  0192                     	;# 
   129  020C                     	;# 
   130  020C                     	;# 
   131  020D                     	;# 
   132  020E                     	;# 
   133  020F                     	;# 
   134  020F                     	;# 
   135  0210                     	;# 
   136  0210                     	;# 
   137  0211                     	;# 
   138  0211                     	;# 
   139  028C                     	;# 
   140  028C                     	;# 
   141  028D                     	;# 
   142  028D                     	;# 
   143  028E                     	;# 
   144  028F                     	;# 
   145  0290                     	;# 
   146  0291                     	;# 
   147  030C                     	;# 
   148  030C                     	;# 
   149  030D                     	;# 
   150  030E                     	;# 
   151  030F                     	;# 
   152  0310                     	;# 
   153  0310                     	;# 
   154  0311                     	;# 
   155  0312                     	;# 
   156  0313                     	;# 
   157  0314                     	;# 
   158  0314                     	;# 
   159  0315                     	;# 
   160  0316                     	;# 
   161  0318                     	;# 
   162  0318                     	;# 
   163  0319                     	;# 
   164  031A                     	;# 
   165  031C                     	;# 
   166  031C                     	;# 
   167  031D                     	;# 
   168  031E                     	;# 
   169  038C                     	;# 
   170  038C                     	;# 
   171  038D                     	;# 
   172  038E                     	;# 
   173  058C                     	;# 
   174  058C                     	;# 
   175  058D                     	;# 
   176  058E                     	;# 
   177  058F                     	;# 
   178  058F                     	;# 
   179  0590                     	;# 
   180  0591                     	;# 
   181  0592                     	;# 
   182  0593                     	;# 
   183  059C                     	;# 
   184  059C                     	;# 
   185  059D                     	;# 
   186  059D                     	;# 
   187  059E                     	;# 
   188  059F                     	;# 
   189  060C                     	;# 
   190  060D                     	;# 
   191  060E                     	;# 
   192  060F                     	;# 
   193  0610                     	;# 
   194  0611                     	;# 
   195  0612                     	;# 
   196  0613                     	;# 
   197  0614                     	;# 
   198  070C                     	;# 
   199  070D                     	;# 
   200  070E                     	;# 
   201  070F                     	;# 
   202  0710                     	;# 
   203  0711                     	;# 
   204  0712                     	;# 
   205  0713                     	;# 
   206  0716                     	;# 
   207  0717                     	;# 
   208  0718                     	;# 
   209  0719                     	;# 
   210  071A                     	;# 
   211  071B                     	;# 
   212  071C                     	;# 
   213  071D                     	;# 
   214  0796                     	;# 
   215  0797                     	;# 
   216  0798                     	;# 
   217  0799                     	;# 
   218  079A                     	;# 
   219  079B                     	;# 
   220  080C                     	;# 
   221  080D                     	;# 
   222  080E                     	;# 
   223  080F                     	;# 
   224  0810                     	;# 
   225  0811                     	;# 
   226  0812                     	;# 
   227  0813                     	;# 
   228  0814                     	;# 
   229  081A                     	;# 
   230  081A                     	;# 
   231  081B                     	;# 
   232  081C                     	;# 
   233  081C                     	;# 
   234  081D                     	;# 
   235  081E                     	;# 
   236  081F                     	;# 
   237  088C                     	;# 
   238  088D                     	;# 
   239  088E                     	;# 
   240  088F                     	;# 
   241  0890                     	;# 
   242  0891                     	;# 
   243  0892                     	;# 
   244  0893                     	;# 
   245  0895                     	;# 
   246  0896                     	;# 
   247  090C                     	;# 
   248  090E                     	;# 
   249  090F                     	;# 
   250  091F                     	;# 
   251  098F                     	;# 
   252  098F                     	;# 
   253  0990                     	;# 
   254  0991                     	;# 
   255  0992                     	;# 
   256  0993                     	;# 
   257  0994                     	;# 
   258  0995                     	;# 
   259  0996                     	;# 
   260  0997                     	;# 
   261  0A19                     	;# 
   262  0A19                     	;# 
   263  0A1A                     	;# 
   264  0A1A                     	;# 
   265  0A1B                     	;# 
   266  0A1B                     	;# 
   267  0A1B                     	;# 
   268  0A1C                     	;# 
   269  0A1C                     	;# 
   270  0A1D                     	;# 
   271  0A1D                     	;# 
   272  0A1E                     	;# 
   273  0A1E                     	;# 
   274  0A1F                     	;# 
   275  0A1F                     	;# 
   276  0A1F                     	;# 
   277  1E0F                     	;# 
   278  1E10                     	;# 
   279  1E11                     	;# 
   280  1E12                     	;# 
   281  1E13                     	;# 
   282  1E14                     	;# 
   283  1E15                     	;# 
   284  1E16                     	;# 
   285  1E17                     	;# 
   286  1E18                     	;# 
   287  1E19                     	;# 
   288  1E1A                     	;# 
   289  1E1B                     	;# 
   290  1E1C                     	;# 
   291  1E1D                     	;# 
   292  1E1E                     	;# 
   293  1E1F                     	;# 
   294  1E20                     	;# 
   295  1E21                     	;# 
   296  1E22                     	;# 
   297  1E23                     	;# 
   298  1E24                     	;# 
   299  1E25                     	;# 
   300  1E26                     	;# 
   301  1E27                     	;# 
   302  1E28                     	;# 
   303  1E29                     	;# 
   304  1E2A                     	;# 
   305  1E2B                     	;# 
   306  1E2C                     	;# 
   307  1E2D                     	;# 
   308  1E2E                     	;# 
   309  1E2F                     	;# 
   310  1E30                     	;# 
   311  1E31                     	;# 
   312  1E32                     	;# 
   313  1E33                     	;# 
   314  1E34                     	;# 
   315  1E35                     	;# 
   316  1E36                     	;# 
   317  1E37                     	;# 
   318  1E8F                     	;# 
   319  1E90                     	;# 
   320  1E91                     	;# 
   321  1E92                     	;# 
   322  1E93                     	;# 
   323  1E9C                     	;# 
   324  1EA1                     	;# 
   325  1EA2                     	;# 
   326  1EB1                     	;# 
   327  1EBB                     	;# 
   328  1EBC                     	;# 
   329  1EBD                     	;# 
   330  1EBE                     	;# 
   331  1EC3                     	;# 
   332  1EC5                     	;# 
   333  1EC6                     	;# 
   334  1EC7                     	;# 
   335  1ECB                     	;# 
   336  1ECC                     	;# 
   337  1ECD                     	;# 
   338  1ECE                     	;# 
   339  1F10                     	;# 
   340  1F11                     	;# 
   341  1F12                     	;# 
   342  1F13                     	;# 
   343  1F14                     	;# 
   344  1F15                     	;# 
   345  1F1C                     	;# 
   346  1F1D                     	;# 
   347  1F1E                     	;# 
   348  1F1F                     	;# 
   349  1F20                     	;# 
   350  1F21                     	;# 
   351  1F22                     	;# 
   352  1F23                     	;# 
   353  1F24                     	;# 
   354  1F25                     	;# 
   355  1F26                     	;# 
   356  1F27                     	;# 
   357  1F38                     	;# 
   358  1F39                     	;# 
   359  1F3A                     	;# 
   360  1F3B                     	;# 
   361  1F3C                     	;# 
   362  1F3D                     	;# 
   363  1F3E                     	;# 
   364  1F3F                     	;# 
   365  1F43                     	;# 
   366  1F44                     	;# 
   367  1F45                     	;# 
   368  1F46                     	;# 
   369  1F47                     	;# 
   370  1F48                     	;# 
   371  1F49                     	;# 
   372  1F4A                     	;# 
   373  1F4E                     	;# 
   374  1F4F                     	;# 
   375  1F50                     	;# 
   376  1F51                     	;# 
   377  1F52                     	;# 
   378  1F53                     	;# 
   379  1F54                     	;# 
   380  1F55                     	;# 
   381  1FE4                     	;# 
   382  1FE5                     	;# 
   383  1FE6                     	;# 
   384  1FE7                     	;# 
   385  1FE8                     	;# 
   386  1FE8                     	;# 
   387  1FE9                     	;# 
   388  1FEA                     	;# 
   389  1FEA                     	;# 
   390  1FEB                     	;# 
   391  1FED                     	;# 
   392  1FEE                     	;# 
   393  1FEF                     	;# 
   394  0000                     	;# 
   395  0001                     	;# 
   396  0002                     	;# 
   397  0003                     	;# 
   398  0004                     	;# 
   399  0005                     	;# 
   400  0006                     	;# 
   401  0007                     	;# 
   402  0008                     	;# 
   403  0009                     	;# 
   404  000A                     	;# 
   405  000B                     	;# 
   406  000C                     	;# 
   407  000D                     	;# 
   408  000E                     	;# 
   409  0012                     	;# 
   410  0013                     	;# 
   411  0014                     	;# 
   412  0018                     	;# 
   413  0019                     	;# 
   414  001A                     	;# 
   415  009B                     	;# 
   416  009B                     	;# 
   417  009C                     	;# 
   418  009D                     	;# 
   419  009E                     	;# 
   420  009F                     	;# 
   421  0119                     	;# 
   422  0119                     	;# 
   423  0119                     	;# 
   424  011A                     	;# 
   425  011A                     	;# 
   426  011A                     	;# 
   427  011B                     	;# 
   428  011B                     	;# 
   429  011B                     	;# 
   430  011B                     	;# 
   431  011B                     	;# 
   432  011C                     	;# 
   433  011C                     	;# 
   434  011C                     	;# 
   435  011D                     	;# 
   436  011D                     	;# 
   437  011D                     	;# 
   438  011E                     	;# 
   439  011E                     	;# 
   440  011E                     	;# 
   441  011F                     	;# 
   442  011F                     	;# 
   443  011F                     	;# 
   444  011F                     	;# 
   445  011F                     	;# 
   446  018C                     	;# 
   447  018D                     	;# 
   448  018E                     	;# 
   449  018F                     	;# 
   450  0190                     	;# 
   451  0191                     	;# 
   452  0192                     	;# 
   453  020C                     	;# 
   454  020C                     	;# 
   455  020D                     	;# 
   456  020E                     	;# 
   457  020F                     	;# 
   458  020F                     	;# 
   459  0210                     	;# 
   460  0210                     	;# 
   461  0211                     	;# 
   462  0211                     	;# 
   463  028C                     	;# 
   464  028C                     	;# 
   465  028D                     	;# 
   466  028D                     	;# 
   467  028E                     	;# 
   468  028F                     	;# 
   469  0290                     	;# 
   470  0291                     	;# 
   471  030C                     	;# 
   472  030C                     	;# 
   473  030D                     	;# 
   474  030E                     	;# 
   475  030F                     	;# 
   476  0310                     	;# 
   477  0310                     	;# 
   478  0311                     	;# 
   479  0312                     	;# 
   480  0313                     	;# 
   481  0314                     	;# 
   482  0314                     	;# 
   483  0315                     	;# 
   484  0316                     	;# 
   485  0318                     	;# 
   486  0318                     	;# 
   487  0319                     	;# 
   488  031A                     	;# 
   489  031C                     	;# 
   490  031C                     	;# 
   491  031D                     	;# 
   492  031E                     	;# 
   493  038C                     	;# 
   494  038C                     	;# 
   495  038D                     	;# 
   496  038E                     	;# 
   497  058C                     	;# 
   498  058C                     	;# 
   499  058D                     	;# 
   500  058E                     	;# 
   501  058F                     	;# 
   502  058F                     	;# 
   503  0590                     	;# 
   504  0591                     	;# 
   505  0592                     	;# 
   506  0593                     	;# 
   507  059C                     	;# 
   508  059C                     	;# 
   509  059D                     	;# 
   510  059D                     	;# 
   511  059E                     	;# 
   512  059F                     	;# 
   513  060C                     	;# 
   514  060D                     	;# 
   515  060E                     	;# 
   516  060F                     	;# 
   517  0610                     	;# 
   518  0611                     	;# 
   519  0612                     	;# 
   520  0613                     	;# 
   521  0614                     	;# 
   522  070C                     	;# 
   523  070D                     	;# 
   524  070E                     	;# 
   525  070F                     	;# 
   526  0710                     	;# 
   527  0711                     	;# 
   528  0712                     	;# 
   529  0713                     	;# 
   530  0716                     	;# 
   531  0717                     	;# 
   532  0718                     	;# 
   533  0719                     	;# 
   534  071A                     	;# 
   535  071B                     	;# 
   536  071C                     	;# 
   537  071D                     	;# 
   538  0796                     	;# 
   539  0797                     	;# 
   540  0798                     	;# 
   541  0799                     	;# 
   542  079A                     	;# 
   543  079B                     	;# 
   544  080C                     	;# 
   545  080D                     	;# 
   546  080E                     	;# 
   547  080F                     	;# 
   548  0810                     	;# 
   549  0811                     	;# 
   550  0812                     	;# 
   551  0813                     	;# 
   552  0814                     	;# 
   553  081A                     	;# 
   554  081A                     	;# 
   555  081B                     	;# 
   556  081C                     	;# 
   557  081C                     	;# 
   558  081D                     	;# 
   559  081E                     	;# 
   560  081F                     	;# 
   561  088C                     	;# 
   562  088D                     	;# 
   563  088E                     	;# 
   564  088F                     	;# 
   565  0890                     	;# 
   566  0891                     	;# 
   567  0892                     	;# 
   568  0893                     	;# 
   569  0895                     	;# 
   570  0896                     	;# 
   571  090C                     	;# 
   572  090E                     	;# 
   573  090F                     	;# 
   574  091F                     	;# 
   575  098F                     	;# 
   576  098F                     	;# 
   577  0990                     	;# 
   578  0991                     	;# 
   579  0992                     	;# 
   580  0993                     	;# 
   581  0994                     	;# 
   582  0995                     	;# 
   583  0996                     	;# 
   584  0997                     	;# 
   585  0A19                     	;# 
   586  0A19                     	;# 
   587  0A1A                     	;# 
   588  0A1A                     	;# 
   589  0A1B                     	;# 
   590  0A1B                     	;# 
   591  0A1B                     	;# 
   592  0A1C                     	;# 
   593  0A1C                     	;# 
   594  0A1D                     	;# 
   595  0A1D                     	;# 
   596  0A1E                     	;# 
   597  0A1E                     	;# 
   598  0A1F                     	;# 
   599  0A1F                     	;# 
   600  0A1F                     	;# 
   601  1E0F                     	;# 
   602  1E10                     	;# 
   603  1E11                     	;# 
   604  1E12                     	;# 
   605  1E13                     	;# 
   606  1E14                     	;# 
   607  1E15                     	;# 
   608  1E16                     	;# 
   609  1E17                     	;# 
   610  1E18                     	;# 
   611  1E19                     	;# 
   612  1E1A                     	;# 
   613  1E1B                     	;# 
   614  1E1C                     	;# 
   615  1E1D                     	;# 
   616  1E1E                     	;# 
   617  1E1F                     	;# 
   618  1E20                     	;# 
   619  1E21                     	;# 
   620  1E22                     	;# 
   621  1E23                     	;# 
   622  1E24                     	;# 
   623  1E25                     	;# 
   624  1E26                     	;# 
   625  1E27                     	;# 
   626  1E28                     	;# 
   627  1E29                     	;# 
   628  1E2A                     	;# 
   629  1E2B                     	;# 
   630  1E2C                     	;# 
   631  1E2D                     	;# 
   632  1E2E                     	;# 
   633  1E2F                     	;# 
   634  1E30                     	;# 
   635  1E31                     	;# 
   636  1E32                     	;# 
   637  1E33                     	;# 
   638  1E34                     	;# 
   639  1E35                     	;# 
   640  1E36                     	;# 
   641  1E37                     	;# 
   642  1E8F                     	;# 
   643  1E90                     	;# 
   644  1E91                     	;# 
   645  1E92                     	;# 
   646  1E93                     	;# 
   647  1E9C                     	;# 
   648  1EA1                     	;# 
   649  1EA2                     	;# 
   650  1EB1                     	;# 
   651  1EBB                     	;# 
   652  1EBC                     	;# 
   653  1EBD                     	;# 
   654  1EBE                     	;# 
   655  1EC3                     	;# 
   656  1EC5                     	;# 
   657  1EC6                     	;# 
   658  1EC7                     	;# 
   659  1ECB                     	;# 
   660  1ECC                     	;# 
   661  1ECD                     	;# 
   662  1ECE                     	;# 
   663  1F10                     	;# 
   664  1F11                     	;# 
   665  1F12                     	;# 
   666  1F13                     	;# 
   667  1F14                     	;# 
   668  1F15                     	;# 
   669  1F1C                     	;# 
   670  1F1D                     	;# 
   671  1F1E                     	;# 
   672  1F1F                     	;# 
   673  1F20                     	;# 
   674  1F21                     	;# 
   675  1F22                     	;# 
   676  1F23                     	;# 
   677  1F24                     	;# 
   678  1F25                     	;# 
   679  1F26                     	;# 
   680  1F27                     	;# 
   681  1F38                     	;# 
   682  1F39                     	;# 
   683  1F3A                     	;# 
   684  1F3B                     	;# 
   685  1F3C                     	;# 
   686  1F3D                     	;# 
   687  1F3E                     	;# 
   688  1F3F                     	;# 
   689  1F43                     	;# 
   690  1F44                     	;# 
   691  1F45                     	;# 
   692  1F46                     	;# 
   693  1F47                     	;# 
   694  1F48                     	;# 
   695  1F49                     	;# 
   696  1F4A                     	;# 
   697  1F4E                     	;# 
   698  1F4F                     	;# 
   699  1F50                     	;# 
   700  1F51                     	;# 
   701  1F52                     	;# 
   702  1F53                     	;# 
   703  1F54                     	;# 
   704  1F55                     	;# 
   705  1FE4                     	;# 
   706  1FE5                     	;# 
   707  1FE6                     	;# 
   708  1FE7                     	;# 
   709  1FE8                     	;# 
   710  1FE8                     	;# 
   711  1FE9                     	;# 
   712  1FEA                     	;# 
   713  1FEA                     	;# 
   714  1FEB                     	;# 
   715  1FED                     	;# 
   716  1FEE                     	;# 
   717  1FEF                     	;# 
   718  0000                     	;# 
   719  0001                     	;# 
   720  0002                     	;# 
   721  0003                     	;# 
   722  0004                     	;# 
   723  0005                     	;# 
   724  0006                     	;# 
   725  0007                     	;# 
   726  0008                     	;# 
   727  0009                     	;# 
   728  000A                     	;# 
   729  000B                     	;# 
   730  000C                     	;# 
   731  000D                     	;# 
   732  000E                     	;# 
   733  0012                     	;# 
   734  0013                     	;# 
   735  0014                     	;# 
   736  0018                     	;# 
   737  0019                     	;# 
   738  001A                     	;# 
   739  009B                     	;# 
   740  009B                     	;# 
   741  009C                     	;# 
   742  009D                     	;# 
   743  009E                     	;# 
   744  009F                     	;# 
   745  0119                     	;# 
   746  0119                     	;# 
   747  0119                     	;# 
   748  011A                     	;# 
   749  011A                     	;# 
   750  011A                     	;# 
   751  011B                     	;# 
   752  011B                     	;# 
   753  011B                     	;# 
   754  011B                     	;# 
   755  011B                     	;# 
   756  011C                     	;# 
   757  011C                     	;# 
   758  011C                     	;# 
   759  011D                     	;# 
   760  011D                     	;# 
   761  011D                     	;# 
   762  011E                     	;# 
   763  011E                     	;# 
   764  011E                     	;# 
   765  011F                     	;# 
   766  011F                     	;# 
   767  011F                     	;# 
   768  011F                     	;# 
   769  011F                     	;# 
   770  018C                     	;# 
   771  018D                     	;# 
   772  018E                     	;# 
   773  018F                     	;# 
   774  0190                     	;# 
   775  0191                     	;# 
   776  0192                     	;# 
   777  020C                     	;# 
   778  020C                     	;# 
   779  020D                     	;# 
   780  020E                     	;# 
   781  020F                     	;# 
   782  020F                     	;# 
   783  0210                     	;# 
   784  0210                     	;# 
   785  0211                     	;# 
   786  0211                     	;# 
   787  028C                     	;# 
   788  028C                     	;# 
   789  028D                     	;# 
   790  028D                     	;# 
   791  028E                     	;# 
   792  028F                     	;# 
   793  0290                     	;# 
   794  0291                     	;# 
   795  030C                     	;# 
   796  030C                     	;# 
   797  030D                     	;# 
   798  030E                     	;# 
   799  030F                     	;# 
   800  0310                     	;# 
   801  0310                     	;# 
   802  0311                     	;# 
   803  0312                     	;# 
   804  0313                     	;# 
   805  0314                     	;# 
   806  0314                     	;# 
   807  0315                     	;# 
   808  0316                     	;# 
   809  0318                     	;# 
   810  0318                     	;# 
   811  0319                     	;# 
   812  031A                     	;# 
   813  031C                     	;# 
   814  031C                     	;# 
   815  031D                     	;# 
   816  031E                     	;# 
   817  038C                     	;# 
   818  038C                     	;# 
   819  038D                     	;# 
   820  038E                     	;# 
   821  058C                     	;# 
   822  058C                     	;# 
   823  058D                     	;# 
   824  058E                     	;# 
   825  058F                     	;# 
   826  058F                     	;# 
   827  0590                     	;# 
   828  0591                     	;# 
   829  0592                     	;# 
   830  0593                     	;# 
   831  059C                     	;# 
   832  059C                     	;# 
   833  059D                     	;# 
   834  059D                     	;# 
   835  059E                     	;# 
   836  059F                     	;# 
   837  060C                     	;# 
   838  060D                     	;# 
   839  060E                     	;# 
   840  060F                     	;# 
   841  0610                     	;# 
   842  0611                     	;# 
   843  0612                     	;# 
   844  0613                     	;# 
   845  0614                     	;# 
   846  070C                     	;# 
   847  070D                     	;# 
   848  070E                     	;# 
   849  070F                     	;# 
   850  0710                     	;# 
   851  0711                     	;# 
   852  0712                     	;# 
   853  0713                     	;# 
   854  0716                     	;# 
   855  0717                     	;# 
   856  0718                     	;# 
   857  0719                     	;# 
   858  071A                     	;# 
   859  071B                     	;# 
   860  071C                     	;# 
   861  071D                     	;# 
   862  0796                     	;# 
   863  0797                     	;# 
   864  0798                     	;# 
   865  0799                     	;# 
   866  079A                     	;# 
   867  079B                     	;# 
   868  080C                     	;# 
   869  080D                     	;# 
   870  080E                     	;# 
   871  080F                     	;# 
   872  0810                     	;# 
   873  0811                     	;# 
   874  0812                     	;# 
   875  0813                     	;# 
   876  0814                     	;# 
   877  081A                     	;# 
   878  081A                     	;# 
   879  081B                     	;# 
   880  081C                     	;# 
   881  081C                     	;# 
   882  081D                     	;# 
   883  081E                     	;# 
   884  081F                     	;# 
   885  088C                     	;# 
   886  088D                     	;# 
   887  088E                     	;# 
   888  088F                     	;# 
   889  0890                     	;# 
   890  0891                     	;# 
   891  0892                     	;# 
   892  0893                     	;# 
   893  0895                     	;# 
   894  0896                     	;# 
   895  090C                     	;# 
   896  090E                     	;# 
   897  090F                     	;# 
   898  091F                     	;# 
   899  098F                     	;# 
   900  098F                     	;# 
   901  0990                     	;# 
   902  0991                     	;# 
   903  0992                     	;# 
   904  0993                     	;# 
   905  0994                     	;# 
   906  0995                     	;# 
   907  0996                     	;# 
   908  0997                     	;# 
   909  0A19                     	;# 
   910  0A19                     	;# 
   911  0A1A                     	;# 
   912  0A1A                     	;# 
   913  0A1B                     	;# 
   914  0A1B                     	;# 
   915  0A1B                     	;# 
   916  0A1C                     	;# 
   917  0A1C                     	;# 
   918  0A1D                     	;# 
   919  0A1D                     	;# 
   920  0A1E                     	;# 
   921  0A1E                     	;# 
   922  0A1F                     	;# 
   923  0A1F                     	;# 
   924  0A1F                     	;# 
   925  1E0F                     	;# 
   926  1E10                     	;# 
   927  1E11                     	;# 
   928  1E12                     	;# 
   929  1E13                     	;# 
   930  1E14                     	;# 
   931  1E15                     	;# 
   932  1E16                     	;# 
   933  1E17                     	;# 
   934  1E18                     	;# 
   935  1E19                     	;# 
   936  1E1A                     	;# 
   937  1E1B                     	;# 
   938  1E1C                     	;# 
   939  1E1D                     	;# 
   940  1E1E                     	;# 
   941  1E1F                     	;# 
   942  1E20                     	;# 
   943  1E21                     	;# 
   944  1E22                     	;# 
   945  1E23                     	;# 
   946  1E24                     	;# 
   947  1E25                     	;# 
   948  1E26                     	;# 
   949  1E27                     	;# 
   950  1E28                     	;# 
   951  1E29                     	;# 
   952  1E2A                     	;# 
   953  1E2B                     	;# 
   954  1E2C                     	;# 
   955  1E2D                     	;# 
   956  1E2E                     	;# 
   957  1E2F                     	;# 
   958  1E30                     	;# 
   959  1E31                     	;# 
   960  1E32                     	;# 
   961  1E33                     	;# 
   962  1E34                     	;# 
   963  1E35                     	;# 
   964  1E36                     	;# 
   965  1E37                     	;# 
   966  1E8F                     	;# 
   967  1E90                     	;# 
   968  1E91                     	;# 
   969  1E92                     	;# 
   970  1E93                     	;# 
   971  1E9C                     	;# 
   972  1EA1                     	;# 
   973  1EA2                     	;# 
   974  1EB1                     	;# 
   975  1EBB                     	;# 
   976  1EBC                     	;# 
   977  1EBD                     	;# 
   978  1EBE                     	;# 
   979  1EC3                     	;# 
   980  1EC5                     	;# 
   981  1EC6                     	;# 
   982  1EC7                     	;# 
   983  1ECB                     	;# 
   984  1ECC                     	;# 
   985  1ECD                     	;# 
   986  1ECE                     	;# 
   987  1F10                     	;# 
   988  1F11                     	;# 
   989  1F12                     	;# 
   990  1F13                     	;# 
   991  1F14                     	;# 
   992  1F15                     	;# 
   993  1F1C                     	;# 
   994  1F1D                     	;# 
   995  1F1E                     	;# 
   996  1F1F                     	;# 
   997  1F20                     	;# 
   998  1F21                     	;# 
   999  1F22                     	;# 
  1000  1F23                     	;# 
  1001  1F24                     	;# 
  1002  1F25                     	;# 
  1003  1F26                     	;# 
  1004  1F27                     	;# 
  1005  1F38                     	;# 
  1006  1F39                     	;# 
  1007  1F3A                     	;# 
  1008  1F3B                     	;# 
  1009  1F3C                     	;# 
  1010  1F3D                     	;# 
  1011  1F3E                     	;# 
  1012  1F3F                     	;# 
  1013  1F43                     	;# 
  1014  1F44                     	;# 
  1015  1F45                     	;# 
  1016  1F46                     	;# 
  1017  1F47                     	;# 
  1018  1F48                     	;# 
  1019  1F49                     	;# 
  1020  1F4A                     	;# 
  1021  1F4E                     	;# 
  1022  1F4F                     	;# 
  1023  1F50                     	;# 
  1024  1F51                     	;# 
  1025  1F52                     	;# 
  1026  1F53                     	;# 
  1027  1F54                     	;# 
  1028  1F55                     	;# 
  1029  1FE4                     	;# 
  1030  1FE5                     	;# 
  1031  1FE6                     	;# 
  1032  1FE7                     	;# 
  1033  1FE8                     	;# 
  1034  1FE8                     	;# 
  1035  1FE9                     	;# 
  1036  1FEA                     	;# 
  1037  1FEA                     	;# 
  1038  1FEB                     	;# 
  1039  1FED                     	;# 
  1040  1FEE                     	;# 
  1041  1FEF                     	;# 
  1042  0000                     	;# 
  1043  0001                     	;# 
  1044  0002                     	;# 
  1045  0003                     	;# 
  1046  0004                     	;# 
  1047  0005                     	;# 
  1048  0006                     	;# 
  1049  0007                     	;# 
  1050  0008                     	;# 
  1051  0009                     	;# 
  1052  000A                     	;# 
  1053  000B                     	;# 
  1054  000C                     	;# 
  1055  000D                     	;# 
  1056  000E                     	;# 
  1057  0012                     	;# 
  1058  0013                     	;# 
  1059  0014                     	;# 
  1060  0018                     	;# 
  1061  0019                     	;# 
  1062  001A                     	;# 
  1063  009B                     	;# 
  1064  009B                     	;# 
  1065  009C                     	;# 
  1066  009D                     	;# 
  1067  009E                     	;# 
  1068  009F                     	;# 
  1069  0119                     	;# 
  1070  0119                     	;# 
  1071  0119                     	;# 
  1072  011A                     	;# 
  1073  011A                     	;# 
  1074  011A                     	;# 
  1075  011B                     	;# 
  1076  011B                     	;# 
  1077  011B                     	;# 
  1078  011B                     	;# 
  1079  011B                     	;# 
  1080  011C                     	;# 
  1081  011C                     	;# 
  1082  011C                     	;# 
  1083  011D                     	;# 
  1084  011D                     	;# 
  1085  011D                     	;# 
  1086  011E                     	;# 
  1087  011E                     	;# 
  1088  011E                     	;# 
  1089  011F                     	;# 
  1090  011F                     	;# 
  1091  011F                     	;# 
  1092  011F                     	;# 
  1093  011F                     	;# 
  1094  018C                     	;# 
  1095  018D                     	;# 
  1096  018E                     	;# 
  1097  018F                     	;# 
  1098  0190                     	;# 
  1099  0191                     	;# 
  1100  0192                     	;# 
  1101  020C                     	;# 
  1102  020C                     	;# 
  1103  020D                     	;# 
  1104  020E                     	;# 
  1105  020F                     	;# 
  1106  020F                     	;# 
  1107  0210                     	;# 
  1108  0210                     	;# 
  1109  0211                     	;# 
  1110  0211                     	;# 
  1111  028C                     	;# 
  1112  028C                     	;# 
  1113  028D                     	;# 
  1114  028D                     	;# 
  1115  028E                     	;# 
  1116  028F                     	;# 
  1117  0290                     	;# 
  1118  0291                     	;# 
  1119  030C                     	;# 
  1120  030C                     	;# 
  1121  030D                     	;# 
  1122  030E                     	;# 
  1123  030F                     	;# 
  1124  0310                     	;# 
  1125  0310                     	;# 
  1126  0311                     	;# 
  1127  0312                     	;# 
  1128  0313                     	;# 
  1129  0314                     	;# 
  1130  0314                     	;# 
  1131  0315                     	;# 
  1132  0316                     	;# 
  1133  0318                     	;# 
  1134  0318                     	;# 
  1135  0319                     	;# 
  1136  031A                     	;# 
  1137  031C                     	;# 
  1138  031C                     	;# 
  1139  031D                     	;# 
  1140  031E                     	;# 
  1141  038C                     	;# 
  1142  038C                     	;# 
  1143  038D                     	;# 
  1144  038E                     	;# 
  1145  058C                     	;# 
  1146  058C                     	;# 
  1147  058D                     	;# 
  1148  058E                     	;# 
  1149  058F                     	;# 
  1150  058F                     	;# 
  1151  0590                     	;# 
  1152  0591                     	;# 
  1153  0592                     	;# 
  1154  0593                     	;# 
  1155  059C                     	;# 
  1156  059C                     	;# 
  1157  059D                     	;# 
  1158  059D                     	;# 
  1159  059E                     	;# 
  1160  059F                     	;# 
  1161  060C                     	;# 
  1162  060D                     	;# 
  1163  060E                     	;# 
  1164  060F                     	;# 
  1165  0610                     	;# 
  1166  0611                     	;# 
  1167  0612                     	;# 
  1168  0613                     	;# 
  1169  0614                     	;# 
  1170  070C                     	;# 
  1171  070D                     	;# 
  1172  070E                     	;# 
  1173  070F                     	;# 
  1174  0710                     	;# 
  1175  0711                     	;# 
  1176  0712                     	;# 
  1177  0713                     	;# 
  1178  0716                     	;# 
  1179  0717                     	;# 
  1180  0718                     	;# 
  1181  0719                     	;# 
  1182  071A                     	;# 
  1183  071B                     	;# 
  1184  071C                     	;# 
  1185  071D                     	;# 
  1186  0796                     	;# 
  1187  0797                     	;# 
  1188  0798                     	;# 
  1189  0799                     	;# 
  1190  079A                     	;# 
  1191  079B                     	;# 
  1192  080C                     	;# 
  1193  080D                     	;# 
  1194  080E                     	;# 
  1195  080F                     	;# 
  1196  0810                     	;# 
  1197  0811                     	;# 
  1198  0812                     	;# 
  1199  0813                     	;# 
  1200  0814                     	;# 
  1201  081A                     	;# 
  1202  081A                     	;# 
  1203  081B                     	;# 
  1204  081C                     	;# 
  1205  081C                     	;# 
  1206  081D                     	;# 
  1207  081E                     	;# 
  1208  081F                     	;# 
  1209  088C                     	;# 
  1210  088D                     	;# 
  1211  088E                     	;# 
  1212  088F                     	;# 
  1213  0890                     	;# 
  1214  0891                     	;# 
  1215  0892                     	;# 
  1216  0893                     	;# 
  1217  0895                     	;# 
  1218  0896                     	;# 
  1219  090C                     	;# 
  1220  090E                     	;# 
  1221  090F                     	;# 
  1222  091F                     	;# 
  1223  098F                     	;# 
  1224  098F                     	;# 
  1225  0990                     	;# 
  1226  0991                     	;# 
  1227  0992                     	;# 
  1228  0993                     	;# 
  1229  0994                     	;# 
  1230  0995                     	;# 
  1231  0996                     	;# 
  1232  0997                     	;# 
  1233  0A19                     	;# 
  1234  0A19                     	;# 
  1235  0A1A                     	;# 
  1236  0A1A                     	;# 
  1237  0A1B                     	;# 
  1238  0A1B                     	;# 
  1239  0A1B                     	;# 
  1240  0A1C                     	;# 
  1241  0A1C                     	;# 
  1242  0A1D                     	;# 
  1243  0A1D                     	;# 
  1244  0A1E                     	;# 
  1245  0A1E                     	;# 
  1246  0A1F                     	;# 
  1247  0A1F                     	;# 
  1248  0A1F                     	;# 
  1249  1E0F                     	;# 
  1250  1E10                     	;# 
  1251  1E11                     	;# 
  1252  1E12                     	;# 
  1253  1E13                     	;# 
  1254  1E14                     	;# 
  1255  1E15                     	;# 
  1256  1E16                     	;# 
  1257  1E17                     	;# 
  1258  1E18                     	;# 
  1259  1E19                     	;# 
  1260  1E1A                     	;# 
  1261  1E1B                     	;# 
  1262  1E1C                     	;# 
  1263  1E1D                     	;# 
  1264  1E1E                     	;# 
  1265  1E1F                     	;# 
  1266  1E20                     	;# 
  1267  1E21                     	;# 
  1268  1E22                     	;# 
  1269  1E23                     	;# 
  1270  1E24                     	;# 
  1271  1E25                     	;# 
  1272  1E26                     	;# 
  1273  1E27                     	;# 
  1274  1E28                     	;# 
  1275  1E29                     	;# 
  1276  1E2A                     	;# 
  1277  1E2B                     	;# 
  1278  1E2C                     	;# 
  1279  1E2D                     	;# 
  1280  1E2E                     	;# 
  1281  1E2F                     	;# 
  1282  1E30                     	;# 
  1283  1E31                     	;# 
  1284  1E32                     	;# 
  1285  1E33                     	;# 
  1286  1E34                     	;# 
  1287  1E35                     	;# 
  1288  1E36                     	;# 
  1289  1E37                     	;# 
  1290  1E8F                     	;# 
  1291  1E90                     	;# 
  1292  1E91                     	;# 
  1293  1E92                     	;# 
  1294  1E93                     	;# 
  1295  1E9C                     	;# 
  1296  1EA1                     	;# 
  1297  1EA2                     	;# 
  1298  1EB1                     	;# 
  1299  1EBB                     	;# 
  1300  1EBC                     	;# 
  1301  1EBD                     	;# 
  1302  1EBE                     	;# 
  1303  1EC3                     	;# 
  1304  1EC5                     	;# 
  1305  1EC6                     	;# 
  1306  1EC7                     	;# 
  1307  1ECB                     	;# 
  1308  1ECC                     	;# 
  1309  1ECD                     	;# 
  1310  1ECE                     	;# 
  1311  1F10                     	;# 
  1312  1F11                     	;# 
  1313  1F12                     	;# 
  1314  1F13                     	;# 
  1315  1F14                     	;# 
  1316  1F15                     	;# 
  1317  1F1C                     	;# 
  1318  1F1D                     	;# 
  1319  1F1E                     	;# 
  1320  1F1F                     	;# 
  1321  1F20                     	;# 
  1322  1F21                     	;# 
  1323  1F22                     	;# 
  1324  1F23                     	;# 
  1325  1F24                     	;# 
  1326  1F25                     	;# 
  1327  1F26                     	;# 
  1328  1F27                     	;# 
  1329  1F38                     	;# 
  1330  1F39                     	;# 
  1331  1F3A                     	;# 
  1332  1F3B                     	;# 
  1333  1F3C                     	;# 
  1334  1F3D                     	;# 
  1335  1F3E                     	;# 
  1336  1F3F                     	;# 
  1337  1F43                     	;# 
  1338  1F44                     	;# 
  1339  1F45                     	;# 
  1340  1F46                     	;# 
  1341  1F47                     	;# 
  1342  1F48                     	;# 
  1343  1F49                     	;# 
  1344  1F4A                     	;# 
  1345  1F4E                     	;# 
  1346  1F4F                     	;# 
  1347  1F50                     	;# 
  1348  1F51                     	;# 
  1349  1F52                     	;# 
  1350  1F53                     	;# 
  1351  1F54                     	;# 
  1352  1F55                     	;# 
  1353  1FE4                     	;# 
  1354  1FE5                     	;# 
  1355  1FE6                     	;# 
  1356  1FE7                     	;# 
  1357  1FE8                     	;# 
  1358  1FE8                     	;# 
  1359  1FE9                     	;# 
  1360  1FEA                     	;# 
  1361  1FEA                     	;# 
  1362  1FEB                     	;# 
  1363  1FED                     	;# 
  1364  1FEE                     	;# 
  1365  1FEF                     	;# 
  1366  0000                     	;# 
  1367  0001                     	;# 
  1368  0002                     	;# 
  1369  0003                     	;# 
  1370  0004                     	;# 
  1371  0005                     	;# 
  1372  0006                     	;# 
  1373  0007                     	;# 
  1374  0008                     	;# 
  1375  0009                     	;# 
  1376  000A                     	;# 
  1377  000B                     	;# 
  1378  000C                     	;# 
  1379  000D                     	;# 
  1380  000E                     	;# 
  1381  0012                     	;# 
  1382  0013                     	;# 
  1383  0014                     	;# 
  1384  0018                     	;# 
  1385  0019                     	;# 
  1386  001A                     	;# 
  1387  009B                     	;# 
  1388  009B                     	;# 
  1389  009C                     	;# 
  1390  009D                     	;# 
  1391  009E                     	;# 
  1392  009F                     	;# 
  1393  0119                     	;# 
  1394  0119                     	;# 
  1395  0119                     	;# 
  1396  011A                     	;# 
  1397  011A                     	;# 
  1398  011A                     	;# 
  1399  011B                     	;# 
  1400  011B                     	;# 
  1401  011B                     	;# 
  1402  011B                     	;# 
  1403  011B                     	;# 
  1404  011C                     	;# 
  1405  011C                     	;# 
  1406  011C                     	;# 
  1407  011D                     	;# 
  1408  011D                     	;# 
  1409  011D                     	;# 
  1410  011E                     	;# 
  1411  011E                     	;# 
  1412  011E                     	;# 
  1413  011F                     	;# 
  1414  011F                     	;# 
  1415  011F                     	;# 
  1416  011F                     	;# 
  1417  011F                     	;# 
  1418  018C                     	;# 
  1419  018D                     	;# 
  1420  018E                     	;# 
  1421  018F                     	;# 
  1422  0190                     	;# 
  1423  0191                     	;# 
  1424  0192                     	;# 
  1425  020C                     	;# 
  1426  020C                     	;# 
  1427  020D                     	;# 
  1428  020E                     	;# 
  1429  020F                     	;# 
  1430  020F                     	;# 
  1431  0210                     	;# 
  1432  0210                     	;# 
  1433  0211                     	;# 
  1434  0211                     	;# 
  1435  028C                     	;# 
  1436  028C                     	;# 
  1437  028D                     	;# 
  1438  028D                     	;# 
  1439  028E                     	;# 
  1440  028F                     	;# 
  1441  0290                     	;# 
  1442  0291                     	;# 
  1443  030C                     	;# 
  1444  030C                     	;# 
  1445  030D                     	;# 
  1446  030E                     	;# 
  1447  030F                     	;# 
  1448  0310                     	;# 
  1449  0310                     	;# 
  1450  0311                     	;# 
  1451  0312                     	;# 
  1452  0313                     	;# 
  1453  0314                     	;# 
  1454  0314                     	;# 
  1455  0315                     	;# 
  1456  0316                     	;# 
  1457  0318                     	;# 
  1458  0318                     	;# 
  1459  0319                     	;# 
  1460  031A                     	;# 
  1461  031C                     	;# 
  1462  031C                     	;# 
  1463  031D                     	;# 
  1464  031E                     	;# 
  1465  038C                     	;# 
  1466  038C                     	;# 
  1467  038D                     	;# 
  1468  038E                     	;# 
  1469  058C                     	;# 
  1470  058C                     	;# 
  1471  058D                     	;# 
  1472  058E                     	;# 
  1473  058F                     	;# 
  1474  058F                     	;# 
  1475  0590                     	;# 
  1476  0591                     	;# 
  1477  0592                     	;# 
  1478  0593                     	;# 
  1479  059C                     	;# 
  1480  059C                     	;# 
  1481  059D                     	;# 
  1482  059D                     	;# 
  1483  059E                     	;# 
  1484  059F                     	;# 
  1485  060C                     	;# 
  1486  060D                     	;# 
  1487  060E                     	;# 
  1488  060F                     	;# 
  1489  0610                     	;# 
  1490  0611                     	;# 
  1491  0612                     	;# 
  1492  0613                     	;# 
  1493  0614                     	;# 
  1494  070C                     	;# 
  1495  070D                     	;# 
  1496  070E                     	;# 
  1497  070F                     	;# 
  1498  0710                     	;# 
  1499  0711                     	;# 
  1500  0712                     	;# 
  1501  0713                     	;# 
  1502  0716                     	;# 
  1503  0717                     	;# 
  1504  0718                     	;# 
  1505  0719                     	;# 
  1506  071A                     	;# 
  1507  071B                     	;# 
  1508  071C                     	;# 
  1509  071D                     	;# 
  1510  0796                     	;# 
  1511  0797                     	;# 
  1512  0798                     	;# 
  1513  0799                     	;# 
  1514  079A                     	;# 
  1515  079B                     	;# 
  1516  080C                     	;# 
  1517  080D                     	;# 
  1518  080E                     	;# 
  1519  080F                     	;# 
  1520  0810                     	;# 
  1521  0811                     	;# 
  1522  0812                     	;# 
  1523  0813                     	;# 
  1524  0814                     	;# 
  1525  081A                     	;# 
  1526  081A                     	;# 
  1527  081B                     	;# 
  1528  081C                     	;# 
  1529  081C                     	;# 
  1530  081D                     	;# 
  1531  081E                     	;# 
  1532  081F                     	;# 
  1533  088C                     	;# 
  1534  088D                     	;# 
  1535  088E                     	;# 
  1536  088F                     	;# 
  1537  0890                     	;# 
  1538  0891                     	;# 
  1539  0892                     	;# 
  1540  0893                     	;# 
  1541  0895                     	;# 
  1542  0896                     	;# 
  1543  090C                     	;# 
  1544  090E                     	;# 
  1545  090F                     	;# 
  1546  091F                     	;# 
  1547  098F                     	;# 
  1548  098F                     	;# 
  1549  0990                     	;# 
  1550  0991                     	;# 
  1551  0992                     	;# 
  1552  0993                     	;# 
  1553  0994                     	;# 
  1554  0995                     	;# 
  1555  0996                     	;# 
  1556  0997                     	;# 
  1557  0A19                     	;# 
  1558  0A19                     	;# 
  1559  0A1A                     	;# 
  1560  0A1A                     	;# 
  1561  0A1B                     	;# 
  1562  0A1B                     	;# 
  1563  0A1B                     	;# 
  1564  0A1C                     	;# 
  1565  0A1C                     	;# 
  1566  0A1D                     	;# 
  1567  0A1D                     	;# 
  1568  0A1E                     	;# 
  1569  0A1E                     	;# 
  1570  0A1F                     	;# 
  1571  0A1F                     	;# 
  1572  0A1F                     	;# 
  1573  1E0F                     	;# 
  1574  1E10                     	;# 
  1575  1E11                     	;# 
  1576  1E12                     	;# 
  1577  1E13                     	;# 
  1578  1E14                     	;# 
  1579  1E15                     	;# 
  1580  1E16                     	;# 
  1581  1E17                     	;# 
  1582  1E18                     	;# 
  1583  1E19                     	;# 
  1584  1E1A                     	;# 
  1585  1E1B                     	;# 
  1586  1E1C                     	;# 
  1587  1E1D                     	;# 
  1588  1E1E                     	;# 
  1589  1E1F                     	;# 
  1590  1E20                     	;# 
  1591  1E21                     	;# 
  1592  1E22                     	;# 
  1593  1E23                     	;# 
  1594  1E24                     	;# 
  1595  1E25                     	;# 
  1596  1E26                     	;# 
  1597  1E27                     	;# 
  1598  1E28                     	;# 
  1599  1E29                     	;# 
  1600  1E2A                     	;# 
  1601  1E2B                     	;# 
  1602  1E2C                     	;# 
  1603  1E2D                     	;# 
  1604  1E2E                     	;# 
  1605  1E2F                     	;# 
  1606  1E30                     	;# 
  1607  1E31                     	;# 
  1608  1E32                     	;# 
  1609  1E33                     	;# 
  1610  1E34                     	;# 
  1611  1E35                     	;# 
  1612  1E36                     	;# 
  1613  1E37                     	;# 
  1614  1E8F                     	;# 
  1615  1E90                     	;# 
  1616  1E91                     	;# 
  1617  1E92                     	;# 
  1618  1E93                     	;# 
  1619  1E9C                     	;# 
  1620  1EA1                     	;# 
  1621  1EA2                     	;# 
  1622  1EB1                     	;# 
  1623  1EBB                     	;# 
  1624  1EBC                     	;# 
  1625  1EBD                     	;# 
  1626  1EBE                     	;# 
  1627  1EC3                     	;# 
  1628  1EC5                     	;# 
  1629  1EC6                     	;# 
  1630  1EC7                     	;# 
  1631  1ECB                     	;# 
  1632  1ECC                     	;# 
  1633  1ECD                     	;# 
  1634  1ECE                     	;# 
  1635  1F10                     	;# 
  1636  1F11                     	;# 
  1637  1F12                     	;# 
  1638  1F13                     	;# 
  1639  1F14                     	;# 
  1640  1F15                     	;# 
  1641  1F1C                     	;# 
  1642  1F1D                     	;# 
  1643  1F1E                     	;# 
  1644  1F1F                     	;# 
  1645  1F20                     	;# 
  1646  1F21                     	;# 
  1647  1F22                     	;# 
  1648  1F23                     	;# 
  1649  1F24                     	;# 
  1650  1F25                     	;# 
  1651  1F26                     	;# 
  1652  1F27                     	;# 
  1653  1F38                     	;# 
  1654  1F39                     	;# 
  1655  1F3A                     	;# 
  1656  1F3B                     	;# 
  1657  1F3C                     	;# 
  1658  1F3D                     	;# 
  1659  1F3E                     	;# 
  1660  1F3F                     	;# 
  1661  1F43                     	;# 
  1662  1F44                     	;# 
  1663  1F45                     	;# 
  1664  1F46                     	;# 
  1665  1F47                     	;# 
  1666  1F48                     	;# 
  1667  1F49                     	;# 
  1668  1F4A                     	;# 
  1669  1F4E                     	;# 
  1670  1F4F                     	;# 
  1671  1F50                     	;# 
  1672  1F51                     	;# 
  1673  1F52                     	;# 
  1674  1F53                     	;# 
  1675  1F54                     	;# 
  1676  1F55                     	;# 
  1677  1FE4                     	;# 
  1678  1FE5                     	;# 
  1679  1FE6                     	;# 
  1680  1FE7                     	;# 
  1681  1FE8                     	;# 
  1682  1FE8                     	;# 
  1683  1FE9                     	;# 
  1684  1FEA                     	;# 
  1685  1FEA                     	;# 
  1686  1FEB                     	;# 
  1687  1FED                     	;# 
  1688  1FEE                     	;# 
  1689  1FEF                     	;# 
  1690  0000                     	;# 
  1691  0001                     	;# 
  1692  0002                     	;# 
  1693  0003                     	;# 
  1694  0004                     	;# 
  1695  0005                     	;# 
  1696  0006                     	;# 
  1697  0007                     	;# 
  1698  0008                     	;# 
  1699  0009                     	;# 
  1700  000A                     	;# 
  1701  000B                     	;# 
  1702  000C                     	;# 
  1703  000D                     	;# 
  1704  000E                     	;# 
  1705  0012                     	;# 
  1706  0013                     	;# 
  1707  0014                     	;# 
  1708  0018                     	;# 
  1709  0019                     	;# 
  1710  001A                     	;# 
  1711  009B                     	;# 
  1712  009B                     	;# 
  1713  009C                     	;# 
  1714  009D                     	;# 
  1715  009E                     	;# 
  1716  009F                     	;# 
  1717  0119                     	;# 
  1718  0119                     	;# 
  1719  0119                     	;# 
  1720  011A                     	;# 
  1721  011A                     	;# 
  1722  011A                     	;# 
  1723  011B                     	;# 
  1724  011B                     	;# 
  1725  011B                     	;# 
  1726  011B                     	;# 
  1727  011B                     	;# 
  1728  011C                     	;# 
  1729  011C                     	;# 
  1730  011C                     	;# 
  1731  011D                     	;# 
  1732  011D                     	;# 
  1733  011D                     	;# 
  1734  011E                     	;# 
  1735  011E                     	;# 
  1736  011E                     	;# 
  1737  011F                     	;# 
  1738  011F                     	;# 
  1739  011F                     	;# 
  1740  011F                     	;# 
  1741  011F                     	;# 
  1742  018C                     	;# 
  1743  018D                     	;# 
  1744  018E                     	;# 
  1745  018F                     	;# 
  1746  0190                     	;# 
  1747  0191                     	;# 
  1748  0192                     	;# 
  1749  020C                     	;# 
  1750  020C                     	;# 
  1751  020D                     	;# 
  1752  020E                     	;# 
  1753  020F                     	;# 
  1754  020F                     	;# 
  1755  0210                     	;# 
  1756  0210                     	;# 
  1757  0211                     	;# 
  1758  0211                     	;# 
  1759  028C                     	;# 
  1760  028C                     	;# 
  1761  028D                     	;# 
  1762  028D                     	;# 
  1763  028E                     	;# 
  1764  028F                     	;# 
  1765  0290                     	;# 
  1766  0291                     	;# 
  1767  030C                     	;# 
  1768  030C                     	;# 
  1769  030D                     	;# 
  1770  030E                     	;# 
  1771  030F                     	;# 
  1772  0310                     	;# 
  1773  0310                     	;# 
  1774  0311                     	;# 
  1775  0312                     	;# 
  1776  0313                     	;# 
  1777  0314                     	;# 
  1778  0314                     	;# 
  1779  0315                     	;# 
  1780  0316                     	;# 
  1781  0318                     	;# 
  1782  0318                     	;# 
  1783  0319                     	;# 
  1784  031A                     	;# 
  1785  031C                     	;# 
  1786  031C                     	;# 
  1787  031D                     	;# 
  1788  031E                     	;# 
  1789  038C                     	;# 
  1790  038C                     	;# 
  1791  038D                     	;# 
  1792  038E                     	;# 
  1793  058C                     	;# 
  1794  058C                     	;# 
  1795  058D                     	;# 
  1796  058E                     	;# 
  1797  058F                     	;# 
  1798  058F                     	;# 
  1799  0590                     	;# 
  1800  0591                     	;# 
  1801  0592                     	;# 
  1802  0593                     	;# 
  1803  059C                     	;# 
  1804  059C                     	;# 
  1805  059D                     	;# 
  1806  059D                     	;# 
  1807  059E                     	;# 
  1808  059F                     	;# 
  1809  060C                     	;# 
  1810  060D                     	;# 
  1811  060E                     	;# 
  1812  060F                     	;# 
  1813  0610                     	;# 
  1814  0611                     	;# 
  1815  0612                     	;# 
  1816  0613                     	;# 
  1817  0614                     	;# 
  1818  070C                     	;# 
  1819  070D                     	;# 
  1820  070E                     	;# 
  1821  070F                     	;# 
  1822  0710                     	;# 
  1823  0711                     	;# 
  1824  0712                     	;# 
  1825  0713                     	;# 
  1826  0716                     	;# 
  1827  0717                     	;# 
  1828  0718                     	;# 
  1829  0719                     	;# 
  1830  071A                     	;# 
  1831  071B                     	;# 
  1832  071C                     	;# 
  1833  071D                     	;# 
  1834  0796                     	;# 
  1835  0797                     	;# 
  1836  0798                     	;# 
  1837  0799                     	;# 
  1838  079A                     	;# 
  1839  079B                     	;# 
  1840  080C                     	;# 
  1841  080D                     	;# 
  1842  080E                     	;# 
  1843  080F                     	;# 
  1844  0810                     	;# 
  1845  0811                     	;# 
  1846  0812                     	;# 
  1847  0813                     	;# 
  1848  0814                     	;# 
  1849  081A                     	;# 
  1850  081A                     	;# 
  1851  081B                     	;# 
  1852  081C                     	;# 
  1853  081C                     	;# 
  1854  081D                     	;# 
  1855  081E                     	;# 
  1856  081F                     	;# 
  1857  088C                     	;# 
  1858  088D                     	;# 
  1859  088E                     	;# 
  1860  088F                     	;# 
  1861  0890                     	;# 
  1862  0891                     	;# 
  1863  0892                     	;# 
  1864  0893                     	;# 
  1865  0895                     	;# 
  1866  0896                     	;# 
  1867  090C                     	;# 
  1868  090E                     	;# 
  1869  090F                     	;# 
  1870  091F                     	;# 
  1871  098F                     	;# 
  1872  098F                     	;# 
  1873  0990                     	;# 
  1874  0991                     	;# 
  1875  0992                     	;# 
  1876  0993                     	;# 
  1877  0994                     	;# 
  1878  0995                     	;# 
  1879  0996                     	;# 
  1880  0997                     	;# 
  1881  0A19                     	;# 
  1882  0A19                     	;# 
  1883  0A1A                     	;# 
  1884  0A1A                     	;# 
  1885  0A1B                     	;# 
  1886  0A1B                     	;# 
  1887  0A1B                     	;# 
  1888  0A1C                     	;# 
  1889  0A1C                     	;# 
  1890  0A1D                     	;# 
  1891  0A1D                     	;# 
  1892  0A1E                     	;# 
  1893  0A1E                     	;# 
  1894  0A1F                     	;# 
  1895  0A1F                     	;# 
  1896  0A1F                     	;# 
  1897  1E0F                     	;# 
  1898  1E10                     	;# 
  1899  1E11                     	;# 
  1900  1E12                     	;# 
  1901  1E13                     	;# 
  1902  1E14                     	;# 
  1903  1E15                     	;# 
  1904  1E16                     	;# 
  1905  1E17                     	;# 
  1906  1E18                     	;# 
  1907  1E19                     	;# 
  1908  1E1A                     	;# 
  1909  1E1B                     	;# 
  1910  1E1C                     	;# 
  1911  1E1D                     	;# 
  1912  1E1E                     	;# 
  1913  1E1F                     	;# 
  1914  1E20                     	;# 
  1915  1E21                     	;# 
  1916  1E22                     	;# 
  1917  1E23                     	;# 
  1918  1E24                     	;# 
  1919  1E25                     	;# 
  1920  1E26                     	;# 
  1921  1E27                     	;# 
  1922  1E28                     	;# 
  1923  1E29                     	;# 
  1924  1E2A                     	;# 
  1925  1E2B                     	;# 
  1926  1E2C                     	;# 
  1927  1E2D                     	;# 
  1928  1E2E                     	;# 
  1929  1E2F                     	;# 
  1930  1E30                     	;# 
  1931  1E31                     	;# 
  1932  1E32                     	;# 
  1933  1E33                     	;# 
  1934  1E34                     	;# 
  1935  1E35                     	;# 
  1936  1E36                     	;# 
  1937  1E37                     	;# 
  1938  1E8F                     	;# 
  1939  1E90                     	;# 
  1940  1E91                     	;# 
  1941  1E92                     	;# 
  1942  1E93                     	;# 
  1943  1E9C                     	;# 
  1944  1EA1                     	;# 
  1945  1EA2                     	;# 
  1946  1EB1                     	;# 
  1947  1EBB                     	;# 
  1948  1EBC                     	;# 
  1949  1EBD                     	;# 
  1950  1EBE                     	;# 
  1951  1EC3                     	;# 
  1952  1EC5                     	;# 
  1953  1EC6                     	;# 
  1954  1EC7                     	;# 
  1955  1ECB                     	;# 
  1956  1ECC                     	;# 
  1957  1ECD                     	;# 
  1958  1ECE                     	;# 
  1959  1F10                     	;# 
  1960  1F11                     	;# 
  1961  1F12                     	;# 
  1962  1F13                     	;# 
  1963  1F14                     	;# 
  1964  1F15                     	;# 
  1965  1F1C                     	;# 
  1966  1F1D                     	;# 
  1967  1F1E                     	;# 
  1968  1F1F                     	;# 
  1969  1F20                     	;# 
  1970  1F21                     	;# 
  1971  1F22                     	;# 
  1972  1F23                     	;# 
  1973  1F24                     	;# 
  1974  1F25                     	;# 
  1975  1F26                     	;# 
  1976  1F27                     	;# 
  1977  1F38                     	;# 
  1978  1F39                     	;# 
  1979  1F3A                     	;# 
  1980  1F3B                     	;# 
  1981  1F3C                     	;# 
  1982  1F3D                     	;# 
  1983  1F3E                     	;# 
  1984  1F3F                     	;# 
  1985  1F43                     	;# 
  1986  1F44                     	;# 
  1987  1F45                     	;# 
  1988  1F46                     	;# 
  1989  1F47                     	;# 
  1990  1F48                     	;# 
  1991  1F49                     	;# 
  1992  1F4A                     	;# 
  1993  1F4E                     	;# 
  1994  1F4F                     	;# 
  1995  1F50                     	;# 
  1996  1F51                     	;# 
  1997  1F52                     	;# 
  1998  1F53                     	;# 
  1999  1F54                     	;# 
  2000  1F55                     	;# 
  2001  1FE4                     	;# 
  2002  1FE5                     	;# 
  2003  1FE6                     	;# 
  2004  1FE7                     	;# 
  2005  1FE8                     	;# 
  2006  1FE8                     	;# 
  2007  1FE9                     	;# 
  2008  1FEA                     	;# 
  2009  1FEA                     	;# 
  2010  1FEB                     	;# 
  2011  1FED                     	;# 
  2012  1FEE                     	;# 
  2013  1FEF                     	;# 
  2014  0000                     	;# 
  2015  0001                     	;# 
  2016  0002                     	;# 
  2017  0003                     	;# 
  2018  0004                     	;# 
  2019  0005                     	;# 
  2020  0006                     	;# 
  2021  0007                     	;# 
  2022  0008                     	;# 
  2023  0009                     	;# 
  2024  000A                     	;# 
  2025  000B                     	;# 
  2026  000C                     	;# 
  2027  000D                     	;# 
  2028  000E                     	;# 
  2029  0012                     	;# 
  2030  0013                     	;# 
  2031  0014                     	;# 
  2032  0018                     	;# 
  2033  0019                     	;# 
  2034  001A                     	;# 
  2035  009B                     	;# 
  2036  009B                     	;# 
  2037  009C                     	;# 
  2038  009D                     	;# 
  2039  009E                     	;# 
  2040  009F                     	;# 
  2041  0119                     	;# 
  2042  0119                     	;# 
  2043  0119                     	;# 
  2044  011A                     	;# 
  2045  011A                     	;# 
  2046  011A                     	;# 
  2047  011B                     	;# 
  2048  011B                     	;# 
  2049  011B                     	;# 
  2050  011B                     	;# 
  2051  011B                     	;# 
  2052  011C                     	;# 
  2053  011C                     	;# 
  2054  011C                     	;# 
  2055  011D                     	;# 
  2056  011D                     	;# 
  2057  011D                     	;# 
  2058  011E                     	;# 
  2059  011E                     	;# 
  2060  011E                     	;# 
  2061  011F                     	;# 
  2062  011F                     	;# 
  2063  011F                     	;# 
  2064  011F                     	;# 
  2065  011F                     	;# 
  2066  018C                     	;# 
  2067  018D                     	;# 
  2068  018E                     	;# 
  2069  018F                     	;# 
  2070  0190                     	;# 
  2071  0191                     	;# 
  2072  0192                     	;# 
  2073  020C                     	;# 
  2074  020C                     	;# 
  2075  020D                     	;# 
  2076  020E                     	;# 
  2077  020F                     	;# 
  2078  020F                     	;# 
  2079  0210                     	;# 
  2080  0210                     	;# 
  2081  0211                     	;# 
  2082  0211                     	;# 
  2083  028C                     	;# 
  2084  028C                     	;# 
  2085  028D                     	;# 
  2086  028D                     	;# 
  2087  028E                     	;# 
  2088  028F                     	;# 
  2089  0290                     	;# 
  2090  0291                     	;# 
  2091  030C                     	;# 
  2092  030C                     	;# 
  2093  030D                     	;# 
  2094  030E                     	;# 
  2095  030F                     	;# 
  2096  0310                     	;# 
  2097  0310                     	;# 
  2098  0311                     	;# 
  2099  0312                     	;# 
  2100  0313                     	;# 
  2101  0314                     	;# 
  2102  0314                     	;# 
  2103  0315                     	;# 
  2104  0316                     	;# 
  2105  0318                     	;# 
  2106  0318                     	;# 
  2107  0319                     	;# 
  2108  031A                     	;# 
  2109  031C                     	;# 
  2110  031C                     	;# 
  2111  031D                     	;# 
  2112  031E                     	;# 
  2113  038C                     	;# 
  2114  038C                     	;# 
  2115  038D                     	;# 
  2116  038E                     	;# 
  2117  058C                     	;# 
  2118  058C                     	;# 
  2119  058D                     	;# 
  2120  058E                     	;# 
  2121  058F                     	;# 
  2122  058F                     	;# 
  2123  0590                     	;# 
  2124  0591                     	;# 
  2125  0592                     	;# 
  2126  0593                     	;# 
  2127  059C                     	;# 
  2128  059C                     	;# 
  2129  059D                     	;# 
  2130  059D                     	;# 
  2131  059E                     	;# 
  2132  059F                     	;# 
  2133  060C                     	;# 
  2134  060D                     	;# 
  2135  060E                     	;# 
  2136  060F                     	;# 
  2137  0610                     	;# 
  2138  0611                     	;# 
  2139  0612                     	;# 
  2140  0613                     	;# 
  2141  0614                     	;# 
  2142  070C                     	;# 
  2143  070D                     	;# 
  2144  070E                     	;# 
  2145  070F                     	;# 
  2146  0710                     	;# 
  2147  0711                     	;# 
  2148  0712                     	;# 
  2149  0713                     	;# 
  2150  0716                     	;# 
  2151  0717                     	;# 
  2152  0718                     	;# 
  2153  0719                     	;# 
  2154  071A                     	;# 
  2155  071B                     	;# 
  2156  071C                     	;# 
  2157  071D                     	;# 
  2158  0796                     	;# 
  2159  0797                     	;# 
  2160  0798                     	;# 
  2161  0799                     	;# 
  2162  079A                     	;# 
  2163  079B                     	;# 
  2164  080C                     	;# 
  2165  080D                     	;# 
  2166  080E                     	;# 
  2167  080F                     	;# 
  2168  0810                     	;# 
  2169  0811                     	;# 
  2170  0812                     	;# 
  2171  0813                     	;# 
  2172  0814                     	;# 
  2173  081A                     	;# 
  2174  081A                     	;# 
  2175  081B                     	;# 
  2176  081C                     	;# 
  2177  081C                     	;# 
  2178  081D                     	;# 
  2179  081E                     	;# 
  2180  081F                     	;# 
  2181  088C                     	;# 
  2182  088D                     	;# 
  2183  088E                     	;# 
  2184  088F                     	;# 
  2185  0890                     	;# 
  2186  0891                     	;# 
  2187  0892                     	;# 
  2188  0893                     	;# 
  2189  0895                     	;# 
  2190  0896                     	;# 
  2191  090C                     	;# 
  2192  090E                     	;# 
  2193  090F                     	;# 
  2194  091F                     	;# 
  2195  098F                     	;# 
  2196  098F                     	;# 
  2197  0990                     	;# 
  2198  0991                     	;# 
  2199  0992                     	;# 
  2200  0993                     	;# 
  2201  0994                     	;# 
  2202  0995                     	;# 
  2203  0996                     	;# 
  2204  0997                     	;# 
  2205  0A19                     	;# 
  2206  0A19                     	;# 
  2207  0A1A                     	;# 
  2208  0A1A                     	;# 
  2209  0A1B                     	;# 
  2210  0A1B                     	;# 
  2211  0A1B                     	;# 
  2212  0A1C                     	;# 
  2213  0A1C                     	;# 
  2214  0A1D                     	;# 
  2215  0A1D                     	;# 
  2216  0A1E                     	;# 
  2217  0A1E                     	;# 
  2218  0A1F                     	;# 
  2219  0A1F                     	;# 
  2220  0A1F                     	;# 
  2221  1E0F                     	;# 
  2222  1E10                     	;# 
  2223  1E11                     	;# 
  2224  1E12                     	;# 
  2225  1E13                     	;# 
  2226  1E14                     	;# 
  2227  1E15                     	;# 
  2228  1E16                     	;# 
  2229  1E17                     	;# 
  2230  1E18                     	;# 
  2231  1E19                     	;# 
  2232  1E1A                     	;# 
  2233  1E1B                     	;# 
  2234  1E1C                     	;# 
  2235  1E1D                     	;# 
  2236  1E1E                     	;# 
  2237  1E1F                     	;# 
  2238  1E20                     	;# 
  2239  1E21                     	;# 
  2240  1E22                     	;# 
  2241  1E23                     	;# 
  2242  1E24                     	;# 
  2243  1E25                     	;# 
  2244  1E26                     	;# 
  2245  1E27                     	;# 
  2246  1E28                     	;# 
  2247  1E29                     	;# 
  2248  1E2A                     	;# 
  2249  1E2B                     	;# 
  2250  1E2C                     	;# 
  2251  1E2D                     	;# 
  2252  1E2E                     	;# 
  2253  1E2F                     	;# 
  2254  1E30                     	;# 
  2255  1E31                     	;# 
  2256  1E32                     	;# 
  2257  1E33                     	;# 
  2258  1E34                     	;# 
  2259  1E35                     	;# 
  2260  1E36                     	;# 
  2261  1E37                     	;# 
  2262  1E8F                     	;# 
  2263  1E90                     	;# 
  2264  1E91                     	;# 
  2265  1E92                     	;# 
  2266  1E93                     	;# 
  2267  1E9C                     	;# 
  2268  1EA1                     	;# 
  2269  1EA2                     	;# 
  2270  1EB1                     	;# 
  2271  1EBB                     	;# 
  2272  1EBC                     	;# 
  2273  1EBD                     	;# 
  2274  1EBE                     	;# 
  2275  1EC3                     	;# 
  2276  1EC5                     	;# 
  2277  1EC6                     	;# 
  2278  1EC7                     	;# 
  2279  1ECB                     	;# 
  2280  1ECC                     	;# 
  2281  1ECD                     	;# 
  2282  1ECE                     	;# 
  2283  1F10                     	;# 
  2284  1F11                     	;# 
  2285  1F12                     	;# 
  2286  1F13                     	;# 
  2287  1F14                     	;# 
  2288  1F15                     	;# 
  2289  1F1C                     	;# 
  2290  1F1D                     	;# 
  2291  1F1E                     	;# 
  2292  1F1F                     	;# 
  2293  1F20                     	;# 
  2294  1F21                     	;# 
  2295  1F22                     	;# 
  2296  1F23                     	;# 
  2297  1F24                     	;# 
  2298  1F25                     	;# 
  2299  1F26                     	;# 
  2300  1F27                     	;# 
  2301  1F38                     	;# 
  2302  1F39                     	;# 
  2303  1F3A                     	;# 
  2304  1F3B                     	;# 
  2305  1F3C                     	;# 
  2306  1F3D                     	;# 
  2307  1F3E                     	;# 
  2308  1F3F                     	;# 
  2309  1F43                     	;# 
  2310  1F44                     	;# 
  2311  1F45                     	;# 
  2312  1F46                     	;# 
  2313  1F47                     	;# 
  2314  1F48                     	;# 
  2315  1F49                     	;# 
  2316  1F4A                     	;# 
  2317  1F4E                     	;# 
  2318  1F4F                     	;# 
  2319  1F50                     	;# 
  2320  1F51                     	;# 
  2321  1F52                     	;# 
  2322  1F53                     	;# 
  2323  1F54                     	;# 
  2324  1F55                     	;# 
  2325  1FE4                     	;# 
  2326  1FE5                     	;# 
  2327  1FE6                     	;# 
  2328  1FE7                     	;# 
  2329  1FE8                     	;# 
  2330  1FE8                     	;# 
  2331  1FE9                     	;# 
  2332  1FEA                     	;# 
  2333  1FEA                     	;# 
  2334  1FEB                     	;# 
  2335  1FED                     	;# 
  2336  1FEE                     	;# 
  2337  1FEF                     	;# 
  2338                           
  2339 ;; Function _INT_DefaultInterruptHandler is unused but had its address taken
  2340  0000                     
  2341                           	psect	nvCOMMON
  2342  007C                     __pnvCOMMON:
  2343  007C                     _timer1ReloadVal:
  2344  007C                     	ds	2
  2345                           
  2346                           	psect	nvBANK0
  2347  002E                     __pnvBANK0:
  2348  002E                     _TMR1_InterruptHandler:
  2349  002E                     	ds	2
  2350  0030                     _INT_InterruptHandler:
  2351  0030                     	ds	2
  2352  0014                     _TRISC	set	20
  2353  0013                     _TRISB	set	19
  2354  0012                     _TRISA	set	18
  2355  001A                     _LATC	set	26
  2356  0019                     _LATB	set	25
  2357  0018                     _LATA	set	24
  2358  000B                     _INTCONbits	set	11
  2359  020F                     _T1GCONbits	set	527
  2360  020E                     _T1CONbits	set	526
  2361  020E                     _T1CON	set	526
  2362  020C                     _TMR1L	set	524
  2363  020D                     _TMR1H	set	525
  2364  0211                     _T1CLK	set	529
  2365  0210                     _T1GATE	set	528
  2366  020F                     _T1GCON	set	527
  2367  059C                     _TMR0	set	1436
  2368  0710                     _PIR4bits	set	1808
  2369  071A                     _PIE4bits	set	1818
  2370  070C                     _PIR0bits	set	1804
  2371  0716                     _PIE0bits	set	1814
  2372  079B                     _PMD5	set	1947
  2373  079A                     _PMD4	set	1946
  2374  0799                     _PMD3	set	1945
  2375  0798                     _PMD2	set	1944
  2376  0797                     _PMD1	set	1943
  2377  0796                     _PMD0	set	1942
  2378  0892                     _OSCTUNE	set	2194
  2379  0890                     _OSCSTAT	set	2192
  2380  0893                     _OSCFRQ	set	2195
  2381  0891                     _OSCEN	set	2193
  2382  088F                     _OSCCON3	set	2191
  2383  088D                     _OSCCON1	set	2189
  2384  1E90                     _INTPPS	set	7824
  2385  1F52                     _INLVLC	set	8018
  2386  1F47                     _INLVLB	set	8007
  2387  1F3C                     _INLVLA	set	7996
  2388  1F51                     _SLRCONC	set	8017
  2389  1F46                     _SLRCONB	set	8006
  2390  1F3B                     _SLRCONA	set	7995
  2391  1F50                     _ODCONC	set	8016
  2392  1F45                     _ODCONB	set	8005
  2393  1F3A                     _ODCONA	set	7994
  2394  1F4F                     _WPUC	set	8015
  2395  1F39                     _WPUA	set	7993
  2396  1F44                     _WPUB	set	8004
  2397  1F38                     _ANSELA	set	7992
  2398  1F43                     _ANSELB	set	8003
  2399  1F4E                     _ANSELC	set	8014
  2400                           
  2401                           	psect	cinit
  2402  0027                     start_initialization:	
  2403                           ; #config settings
  2404                           
  2405  0027                     __initialization:
  2406                           
  2407                           ; Clear objects allocated to BANK0
  2408  0027  3020               	movlw	low __pbssBANK0
  2409  0028  0084               	movwf	4
  2410  0029  3000               	movlw	high __pbssBANK0
  2411  002A  0085               	movwf	5
  2412  002B  300E               	movlw	14
  2413  002C  3182  2290  3180   	fcall	clear_ram0
  2414  002F                     end_of_initialization:	
  2415                           ;End of C runtime variable initialization code
  2416                           
  2417  002F                     __end_of__initialization:
  2418  002F  107E               	bcf	int$flags,0	;clear compiler interrupt flag (level 1)
  2419  0030  0140               	movlb	0
  2420  0031  3182  2A80         	ljmp	_main	;jump to C main() function
  2421                           
  2422                           	psect	bssBANK0
  2423  0020                     __pbssBANK0:
  2424  0020                     _Decoder:
  2425  0020                     	ds	10
  2426  002A                     _RC5_Code:
  2427  002A                     	ds	4
  2428                           
  2429                           	psect	clrtext
  2430  0290                     clear_ram0:	
  2431                           ;	Called with FSR0 containing the base address, and
  2432                           ;	WREG with the size to clear
  2433                           
  2434  0290  0064               	clrwdt	;clear the watchdog before getting into this loop
  2435  0291                     clrloop0:
  2436  0291  0180               	clrf	0	;clear RAM location pointed to by FSR
  2437  0292  3101               	addfsr 0,1
  2438  0293  0B89               	decfsz	9,f	;Have we reached the end of clearing yet?
  2439  0294  2A91               	goto	clrloop0	;have we reached the end yet?
  2440  0295  3400               	retlw	0	;all done for this memory range, return
  2441                           
  2442                           	psect	cstackCOMMON
  2443  0070                     __pcstackCOMMON:
  2444  0070                     ?_INT_ISR:
  2445  0070                     ?_TMR1_ISR:	
  2446                           ; 1 bytes @ 0x0
  2447                           
  2448  0070                     ?_get_pulse_length:	
  2449                           ; 1 bytes @ 0x0
  2450                           
  2451  0070                     ?_save_data:	
  2452                           ; 1 bytes @ 0x0
  2453                           
  2454  0070                     ??_save_data:	
  2455                           ; 1 bytes @ 0x0
  2456                           
  2457  0070                     ?_PMD_Initialize:	
  2458                           ; 1 bytes @ 0x0
  2459                           
  2460  0070                     ?_PIN_MANAGER_Initialize:	
  2461                           ; 1 bytes @ 0x0
  2462                           
  2463  0070                     ?_OSCILLATOR_Initialize:	
  2464                           ; 1 bytes @ 0x0
  2465                           
  2466  0070                     ?_TMR1_Initialize:	
  2467                           ; 1 bytes @ 0x0
  2468                           
  2469  0070                     ?_TMR1_DefaultInterruptHandler:	
  2470                           ; 1 bytes @ 0x0
  2471                           
  2472  0070                     ??_TMR1_DefaultInterruptHandler:	
  2473                           ; 1 bytes @ 0x0
  2474                           
  2475  0070                     ?_one_type_pulse:	
  2476                           ; 1 bytes @ 0x0
  2477                           
  2478  0070                     ?_two_type_pulse:	
  2479                           ; 1 bytes @ 0x0
  2480                           
  2481  0070                     ?_three_type_pulse:	
  2482                           ; 1 bytes @ 0x0
  2483                           
  2484  0070                     ?_INTERRUPT_InterruptManager:	
  2485                           ; 1 bytes @ 0x0
  2486                           
  2487  0070                     ?_EXT_INT_Initialize:	
  2488                           ; 1 bytes @ 0x0
  2489                           
  2490  0070                     ?_SYSTEM_Initialize:	
  2491                           ; 1 bytes @ 0x0
  2492                           
  2493  0070                     ?_TMR1_WriteTimer:	
  2494                           ; 1 bytes @ 0x0
  2495                           
  2496  0070                     ?_main:	
  2497                           ; 1 bytes @ 0x0
  2498                           
  2499  0070                     ?___awdiv:	
  2500                           ; 1 bytes @ 0x0
  2501                           
  2502  0070                     TMR1_WriteTimer@timerVal:	
  2503                           ; 2 bytes @ 0x0
  2504                           
  2505  0070                     ___awdiv@divisor:	
  2506                           ; 2 bytes @ 0x0
  2507                           
  2508                           
  2509                           ; 2 bytes @ 0x0
  2510  0070                     	ds	1
  2511  0071                     save_data@data:
  2512                           
  2513                           ; 1 bytes @ 0x1
  2514  0071                     	ds	1
  2515  0072                     ??_TMR1_ISR:
  2516  0072                     ??_one_type_pulse:	
  2517                           ; 1 bytes @ 0x2
  2518                           
  2519  0072                     ??_two_type_pulse:	
  2520                           ; 1 bytes @ 0x2
  2521                           
  2522  0072                     ??_three_type_pulse:	
  2523                           ; 1 bytes @ 0x2
  2524                           
  2525  0072                     ??_TMR1_WriteTimer:	
  2526                           ; 1 bytes @ 0x2
  2527                           
  2528  0072                     ___awdiv@dividend:	
  2529                           ; 1 bytes @ 0x2
  2530                           
  2531                           
  2532                           ; 2 bytes @ 0x2
  2533  0072                     	ds	1
  2534  0073                     ??_get_pulse_length:
  2535                           
  2536                           ; 1 bytes @ 0x3
  2537  0073                     	ds	1
  2538  0074                     ??___awdiv:
  2539  0074                     get_pulse_length@max:	
  2540                           ; 1 bytes @ 0x4
  2541                           
  2542                           
  2543                           ; 1 bytes @ 0x4
  2544  0074                     	ds	1
  2545  0075                     get_pulse_length@min:
  2546  0075                     ___awdiv@counter:	
  2547                           ; 1 bytes @ 0x5
  2548                           
  2549                           
  2550                           ; 1 bytes @ 0x5
  2551  0075                     	ds	1
  2552  0076                     ___awdiv@sign:
  2553                           
  2554                           ; 1 bytes @ 0x6
  2555  0076                     	ds	1
  2556  0077                     ___awdiv@quotient:
  2557                           
  2558                           ; 2 bytes @ 0x7
  2559  0077                     	ds	2
  2560  0079                     ??_INT_ISR:
  2561                           
  2562                           ; 1 bytes @ 0x9
  2563  0079                     	ds	3
  2564  007C                     ??_INTERRUPT_InterruptManager:
  2565                           
  2566                           	psect	cstackBANK0
  2567  0032                     __pcstackBANK0:	
  2568                           ; 1 bytes @ 0xC
  2569                           
  2570  0032                     ??_PMD_Initialize:
  2571  0032                     ??_PIN_MANAGER_Initialize:	
  2572                           ; 1 bytes @ 0x0
  2573                           
  2574  0032                     ??_OSCILLATOR_Initialize:	
  2575                           ; 1 bytes @ 0x0
  2576                           
  2577  0032                     ?_TMR1_SetInterruptHandler:	
  2578                           ; 1 bytes @ 0x0
  2579                           
  2580  0032                     ?_INT_SetInterruptHandler:	
  2581                           ; 1 bytes @ 0x0
  2582                           
  2583  0032                     INT_SetInterruptHandler@InterruptHandler:	
  2584                           ; 1 bytes @ 0x0
  2585                           
  2586  0032                     TMR1_SetInterruptHandler@InterruptHandler:	
  2587                           ; 2 bytes @ 0x0
  2588                           
  2589                           
  2590                           ; 2 bytes @ 0x0
  2591  0032                     	ds	2
  2592  0034                     ??_TMR1_Initialize:
  2593  0034                     ??_TMR1_SetInterruptHandler:	
  2594                           ; 1 bytes @ 0x2
  2595                           
  2596  0034                     ??_INT_SetInterruptHandler:	
  2597                           ; 1 bytes @ 0x2
  2598                           
  2599  0034                     ??_EXT_INT_Initialize:	
  2600                           ; 1 bytes @ 0x2
  2601                           
  2602  0034                     ??_SYSTEM_Initialize:	
  2603                           ; 1 bytes @ 0x2
  2604                           
  2605  0034                     ??_main:	
  2606                           ; 1 bytes @ 0x2
  2607                           
  2608                           
  2609                           	psect	maintext
  2610  0280                     __pmaintext:	
  2611                           ; 1 bytes @ 0x2
  2612 ;;
  2613 ;;Main: autosize = 0, tempsize = 0, incstack = 0, save=0
  2614 ;;
  2615 ;; *************** function _main *****************
  2616 ;; Defined at:
  2617 ;;		line 7 in file "main.c"
  2618 ;; Parameters:    Size  Location     Type
  2619 ;;		None
  2620 ;; Auto vars:     Size  Location     Type
  2621 ;;		None
  2622 ;; Return value:  Size  Location     Type
  2623 ;;                  1    wreg      void 
  2624 ;; Registers used:
  2625 ;;		wreg, status,2, status,0, pclath, cstack
  2626 ;; Tracked objects:
  2627 ;;		On entry : B3F/0
  2628 ;;		On exit  : 0/0
  2629 ;;		Unchanged: 0/0
  2630 ;; Data sizes:     COMMON   BANK0   BANK1   BANK2   BANK3   BANK4   BANK5   BANK6
  2631 ;;      Params:         0       0       0       0       0       0       0       0
  2632 ;;      Locals:         0       0       0       0       0       0       0       0
  2633 ;;      Temps:          0       0       0       0       0       0       0       0
  2634 ;;      Totals:         0       0       0       0       0       0       0       0
  2635 ;;Total ram usage:        0 bytes
  2636 ;; Hardware stack levels required when called: 8
  2637 ;; This function calls:
  2638 ;;		_SYSTEM_Initialize
  2639 ;; This function is called by:
  2640 ;;		Startup code after reset
  2641 ;; This function uses a non-reentrant model
  2642 ;;
  2643                           
  2644  0280                     _main:	
  2645                           ;psect for function _main
  2646                           
  2647  0280                     l1486:	
  2648                           ;incstack = 0
  2649                           ; Regs used in _main: [wreg+status,2+status,0+pclath+cstack]
  2650                           
  2651                           
  2652                           ;main.c: 10:     SYSTEM_Initialize();
  2653  0280  3182  223A  3182   	fcall	_SYSTEM_Initialize
  2654  0283                     l1488:
  2655                           
  2656                           ;main.c: 13:     (INTCONbits.GIE = 1);
  2657  0283  178B               	bsf	11,7	;volatile
  2658  0284                     l1490:
  2659                           
  2660                           ;main.c: 16:     (INTCONbits.PEIE = 1);
  2661  0284  170B               	bsf	11,6	;volatile
  2662  0285                     l241:	
  2663                           ;main.c: 17:     while (1)
  2664                           
  2665  0285                     l242:	
  2666                           ;main.c: 18:     {;main.c: 20:     }
  2667                           
  2668  0285  2A85               	goto	l241
  2669  0286  3180  2825         	ljmp	start
  2670  0288                     __end_of_main:
  2671                           
  2672                           	psect	text1
  2673  023A                     __ptext1:	
  2674 ;; *************** function _SYSTEM_Initialize *****************
  2675 ;; Defined at:
  2676 ;;		line 50 in file "mcc_generated_files/mcc.c"
  2677 ;; Parameters:    Size  Location     Type
  2678 ;;		None
  2679 ;; Auto vars:     Size  Location     Type
  2680 ;;		None
  2681 ;; Return value:  Size  Location     Type
  2682 ;;                  1    wreg      void 
  2683 ;; Registers used:
  2684 ;;		wreg, status,2, status,0, pclath, cstack
  2685 ;; Tracked objects:
  2686 ;;		On entry : 0/0
  2687 ;;		On exit  : 0/0
  2688 ;;		Unchanged: 0/0
  2689 ;; Data sizes:     COMMON   BANK0   BANK1   BANK2   BANK3   BANK4   BANK5   BANK6
  2690 ;;      Params:         0       0       0       0       0       0       0       0
  2691 ;;      Locals:         0       0       0       0       0       0       0       0
  2692 ;;      Temps:          0       0       0       0       0       0       0       0
  2693 ;;      Totals:         0       0       0       0       0       0       0       0
  2694 ;;Total ram usage:        0 bytes
  2695 ;; Hardware stack levels used: 1
  2696 ;; Hardware stack levels required when called: 7
  2697 ;; This function calls:
  2698 ;;		_EXT_INT_Initialize
  2699 ;;		_OSCILLATOR_Initialize
  2700 ;;		_PIN_MANAGER_Initialize
  2701 ;;		_PMD_Initialize
  2702 ;;		_TMR1_Initialize
  2703 ;; This function is called by:
  2704 ;;		_main
  2705 ;; This function uses a non-reentrant model
  2706 ;;
  2707                           
  2708  023A                     _SYSTEM_Initialize:	
  2709                           ;psect for function _SYSTEM_Initialize
  2710                           
  2711  023A                     l1458:	
  2712                           ;incstack = 0
  2713                           ; Regs used in _SYSTEM_Initialize: [wreg+status,2+status,0+pclath+cstack]
  2714                           
  2715                           
  2716                           ;mcc_generated_files/mcc.c: 52:     PMD_Initialize();
  2717  023A  3182  2288  3182   	fcall	_PMD_Initialize
  2718  023D                     l1460:
  2719                           
  2720                           ;mcc_generated_files/mcc.c: 53:     PIN_MANAGER_Initialize();
  2721  023D  3181  219D  3182   	fcall	_PIN_MANAGER_Initialize
  2722  0240                     l1462:
  2723                           
  2724                           ;mcc_generated_files/mcc.c: 54:     OSCILLATOR_Initialize();
  2725  0240  3182  2276  3182   	fcall	_OSCILLATOR_Initialize
  2726  0243                     l1464:
  2727                           
  2728                           ;mcc_generated_files/mcc.c: 55:     EXT_INT_Initialize();
  2729  0243  3182  225A  3182   	fcall	_EXT_INT_Initialize
  2730  0246                     l1466:
  2731                           
  2732                           ;mcc_generated_files/mcc.c: 56:     TMR1_Initialize();
  2733  0246  3181  21C3  3182   	fcall	_TMR1_Initialize
  2734  0249                     l108:
  2735  0249  0008               	return
  2736  024A                     __end_of_SYSTEM_Initialize:
  2737                           
  2738                           	psect	text2
  2739  01C3                     __ptext2:	
  2740 ;; *************** function _TMR1_Initialize *****************
  2741 ;; Defined at:
  2742 ;;		line 64 in file "mcc_generated_files/tmr1.c"
  2743 ;; Parameters:    Size  Location     Type
  2744 ;;		None
  2745 ;; Auto vars:     Size  Location     Type
  2746 ;;		None
  2747 ;; Return value:  Size  Location     Type
  2748 ;;                  1    wreg      void 
  2749 ;; Registers used:
  2750 ;;		wreg, status,2, status,0, pclath, cstack
  2751 ;; Tracked objects:
  2752 ;;		On entry : 0/0
  2753 ;;		On exit  : 0/0
  2754 ;;		Unchanged: 0/0
  2755 ;; Data sizes:     COMMON   BANK0   BANK1   BANK2   BANK3   BANK4   BANK5   BANK6
  2756 ;;      Params:         0       0       0       0       0       0       0       0
  2757 ;;      Locals:         0       0       0       0       0       0       0       0
  2758 ;;      Temps:          0       0       0       0       0       0       0       0
  2759 ;;      Totals:         0       0       0       0       0       0       0       0
  2760 ;;Total ram usage:        0 bytes
  2761 ;; Hardware stack levels used: 1
  2762 ;; Hardware stack levels required when called: 6
  2763 ;; This function calls:
  2764 ;;		_TMR1_SetInterruptHandler
  2765 ;; This function is called by:
  2766 ;;		_SYSTEM_Initialize
  2767 ;; This function uses a non-reentrant model
  2768 ;;
  2769                           
  2770  01C3                     _TMR1_Initialize:	
  2771                           ;psect for function _TMR1_Initialize
  2772                           
  2773  01C3                     l1318:	
  2774                           ;incstack = 0
  2775                           ; Regs used in _TMR1_Initialize: [wreg+status,2+status,0+pclath+cstack]
  2776                           
  2777                           
  2778                           ;mcc_generated_files/tmr1.c: 69:     T1GCON = 0x00;
  2779  01C3  0144               	movlb	4	; select bank4
  2780  01C4  018F               	clrf	15	;volatile
  2781                           
  2782                           ;mcc_generated_files/tmr1.c: 72:     T1GATE = 0x00;
  2783  01C5  0190               	clrf	16	;volatile
  2784  01C6                     l1320:
  2785                           
  2786                           ;mcc_generated_files/tmr1.c: 75:     T1CLK = 0x01;
  2787  01C6  3001               	movlw	1
  2788  01C7  0091               	movwf	17	;volatile
  2789  01C8                     l1322:
  2790                           
  2791                           ;mcc_generated_files/tmr1.c: 78:     TMR1H = 0xC1;
  2792  01C8  30C1               	movlw	193
  2793  01C9  008D               	movwf	13	;volatile
  2794  01CA                     l1324:
  2795                           
  2796                           ;mcc_generated_files/tmr1.c: 81:     TMR1L = 0x80;
  2797  01CA  3080               	movlw	128
  2798  01CB  008C               	movwf	12	;volatile
  2799  01CC                     l1326:
  2800                           
  2801                           ;mcc_generated_files/tmr1.c: 84:     PIR4bits.TMR1IF = 0;
  2802  01CC  014E               	movlb	14	; select bank14
  2803  01CD  1010               	bcf	16,0	;volatile
  2804  01CE                     l1328:
  2805                           
  2806                           ;mcc_generated_files/tmr1.c: 87:     timer1ReloadVal=(uint16_t)((TMR1H << 8) | TMR1L);
  2807  01CE  0144               	movlb	4	; select bank4
  2808  01CF  080D               	movf	13,w	;volatile
  2809  01D0  00FD               	movwf	_timer1ReloadVal+1	;volatile
  2810  01D1  080C               	movf	12,w	;volatile
  2811  01D2  00FC               	movwf	_timer1ReloadVal	;volatile
  2812  01D3                     l1330:
  2813                           
  2814                           ;mcc_generated_files/tmr1.c: 90:     PIE4bits.TMR1IE = 1;
  2815  01D3  014E               	movlb	14	; select bank14
  2816  01D4  141A               	bsf	26,0	;volatile
  2817  01D5                     l1332:
  2818                           
  2819                           ;mcc_generated_files/tmr1.c: 93:     TMR1_SetInterruptHandler(TMR1_DefaultInterruptHandl
      +                          er);
  2820  01D5  30A2               	movlw	low _TMR1_DefaultInterruptHandler
  2821  01D6  0140               	movlb	0	; select bank0
  2822  01D7  00B2               	movwf	TMR1_SetInterruptHandler@InterruptHandler
  2823  01D8  3002               	movlw	high _TMR1_DefaultInterruptHandler
  2824  01D9  00B3               	movwf	TMR1_SetInterruptHandler@InterruptHandler+1
  2825  01DA  3182  2296  3181   	fcall	_TMR1_SetInterruptHandler
  2826  01DD                     l1334:
  2827                           
  2828                           ;mcc_generated_files/tmr1.c: 96:     T1CON = 0x33;
  2829  01DD  3033               	movlw	51
  2830  01DE  0144               	movlb	4	; select bank4
  2831  01DF  008E               	movwf	14	;volatile
  2832  01E0                     l145:
  2833  01E0  0008               	return
  2834  01E1                     __end_of_TMR1_Initialize:
  2835                           
  2836                           	psect	text3
  2837  0296                     __ptext3:	
  2838 ;; *************** function _TMR1_SetInterruptHandler *****************
  2839 ;; Defined at:
  2840 ;;		line 178 in file "mcc_generated_files/tmr1.c"
  2841 ;; Parameters:    Size  Location     Type
  2842 ;;  InterruptHan    2    0[BANK0 ] PTR FTN()void 
  2843 ;;		 -> TMR1_DefaultInterruptHandler(1), 
  2844 ;; Auto vars:     Size  Location     Type
  2845 ;;		None
  2846 ;; Return value:  Size  Location     Type
  2847 ;;                  1    wreg      void 
  2848 ;; Registers used:
  2849 ;;		wreg
  2850 ;; Tracked objects:
  2851 ;;		On entry : 0/0
  2852 ;;		On exit  : 0/0
  2853 ;;		Unchanged: 0/0
  2854 ;; Data sizes:     COMMON   BANK0   BANK1   BANK2   BANK3   BANK4   BANK5   BANK6
  2855 ;;      Params:         0       2       0       0       0       0       0       0
  2856 ;;      Locals:         0       0       0       0       0       0       0       0
  2857 ;;      Temps:          0       0       0       0       0       0       0       0
  2858 ;;      Totals:         0       2       0       0       0       0       0       0
  2859 ;;Total ram usage:        2 bytes
  2860 ;; Hardware stack levels used: 1
  2861 ;; Hardware stack levels required when called: 5
  2862 ;; This function calls:
  2863 ;;		Nothing
  2864 ;; This function is called by:
  2865 ;;		_TMR1_Initialize
  2866 ;; This function uses a non-reentrant model
  2867 ;;
  2868                           
  2869  0296                     _TMR1_SetInterruptHandler:	
  2870                           ;psect for function _TMR1_SetInterruptHandler
  2871                           
  2872  0296                     l1196:	
  2873                           ;incstack = 0
  2874                           ; Regs used in _TMR1_SetInterruptHandler: [wreg]
  2875                           
  2876                           
  2877                           ;mcc_generated_files/tmr1.c: 179:     TMR1_InterruptHandler = InterruptHandler;
  2878  0296  0140               	movlb	0	; select bank0
  2879  0297  0833               	movf	TMR1_SetInterruptHandler@InterruptHandler+1,w
  2880  0298  00AF               	movwf	_TMR1_InterruptHandler+1
  2881  0299  0832               	movf	TMR1_SetInterruptHandler@InterruptHandler,w
  2882  029A  00AE               	movwf	_TMR1_InterruptHandler
  2883  029B                     l175:
  2884  029B  0008               	return
  2885  029C                     __end_of_TMR1_SetInterruptHandler:
  2886                           
  2887                           	psect	text4
  2888  0288                     __ptext4:	
  2889 ;; *************** function _PMD_Initialize *****************
  2890 ;; Defined at:
  2891 ;;		line 75 in file "mcc_generated_files/mcc.c"
  2892 ;; Parameters:    Size  Location     Type
  2893 ;;		None
  2894 ;; Auto vars:     Size  Location     Type
  2895 ;;		None
  2896 ;; Return value:  Size  Location     Type
  2897 ;;                  1    wreg      void 
  2898 ;; Registers used:
  2899 ;;		status,2
  2900 ;; Tracked objects:
  2901 ;;		On entry : 0/0
  2902 ;;		On exit  : 0/0
  2903 ;;		Unchanged: 0/0
  2904 ;; Data sizes:     COMMON   BANK0   BANK1   BANK2   BANK3   BANK4   BANK5   BANK6
  2905 ;;      Params:         0       0       0       0       0       0       0       0
  2906 ;;      Locals:         0       0       0       0       0       0       0       0
  2907 ;;      Temps:          0       0       0       0       0       0       0       0
  2908 ;;      Totals:         0       0       0       0       0       0       0       0
  2909 ;;Total ram usage:        0 bytes
  2910 ;; Hardware stack levels used: 1
  2911 ;; Hardware stack levels required when called: 5
  2912 ;; This function calls:
  2913 ;;		Nothing
  2914 ;; This function is called by:
  2915 ;;		_SYSTEM_Initialize
  2916 ;; This function uses a non-reentrant model
  2917 ;;
  2918                           
  2919  0288                     _PMD_Initialize:	
  2920                           ;psect for function _PMD_Initialize
  2921                           
  2922  0288                     l1272:	
  2923                           ;incstack = 0
  2924                           ; Regs used in _PMD_Initialize: [status,2]
  2925                           
  2926                           
  2927                           ;mcc_generated_files/mcc.c: 78:     PMD0 = 0x00;
  2928  0288  014F               	movlb	15	; select bank15
  2929  0289  0196               	clrf	22	;volatile
  2930                           
  2931                           ;mcc_generated_files/mcc.c: 80:     PMD1 = 0x00;
  2932  028A  0197               	clrf	23	;volatile
  2933                           
  2934                           ;mcc_generated_files/mcc.c: 82:     PMD2 = 0x00;
  2935  028B  0198               	clrf	24	;volatile
  2936                           
  2937                           ;mcc_generated_files/mcc.c: 84:     PMD3 = 0x00;
  2938  028C  0199               	clrf	25	;volatile
  2939                           
  2940                           ;mcc_generated_files/mcc.c: 86:     PMD4 = 0x00;
  2941  028D  019A               	clrf	26	;volatile
  2942                           
  2943                           ;mcc_generated_files/mcc.c: 88:     PMD5 = 0x00;
  2944  028E  019B               	clrf	27	;volatile
  2945  028F                     l114:
  2946  028F  0008               	return
  2947  0290                     __end_of_PMD_Initialize:
  2948                           
  2949                           	psect	text5
  2950  019D                     __ptext5:	
  2951 ;; *************** function _PIN_MANAGER_Initialize *****************
  2952 ;; Defined at:
  2953 ;;		line 55 in file "mcc_generated_files/pin_manager.c"
  2954 ;; Parameters:    Size  Location     Type
  2955 ;;		None
  2956 ;; Auto vars:     Size  Location     Type
  2957 ;;		None
  2958 ;; Return value:  Size  Location     Type
  2959 ;;                  1    wreg      void 
  2960 ;; Registers used:
  2961 ;;		wreg, status,2
  2962 ;; Tracked objects:
  2963 ;;		On entry : 0/0
  2964 ;;		On exit  : 0/0
  2965 ;;		Unchanged: 0/0
  2966 ;; Data sizes:     COMMON   BANK0   BANK1   BANK2   BANK3   BANK4   BANK5   BANK6
  2967 ;;      Params:         0       0       0       0       0       0       0       0
  2968 ;;      Locals:         0       0       0       0       0       0       0       0
  2969 ;;      Temps:          0       0       0       0       0       0       0       0
  2970 ;;      Totals:         0       0       0       0       0       0       0       0
  2971 ;;Total ram usage:        0 bytes
  2972 ;; Hardware stack levels used: 1
  2973 ;; Hardware stack levels required when called: 5
  2974 ;; This function calls:
  2975 ;;		Nothing
  2976 ;; This function is called by:
  2977 ;;		_SYSTEM_Initialize
  2978 ;; This function uses a non-reentrant model
  2979 ;;
  2980                           
  2981  019D                     _PIN_MANAGER_Initialize:	
  2982                           ;psect for function _PIN_MANAGER_Initialize
  2983                           
  2984  019D                     l1274:	
  2985                           ;incstack = 0
  2986                           ; Regs used in _PIN_MANAGER_Initialize: [wreg+status,2]
  2987                           
  2988                           
  2989                           ;mcc_generated_files/pin_manager.c: 60:     LATA = 0x00;
  2990  019D  0140               	movlb	0	; select bank0
  2991  019E  0198               	clrf	24	;volatile
  2992                           
  2993                           ;mcc_generated_files/pin_manager.c: 61:     LATB = 0x00;
  2994  019F  0199               	clrf	25	;volatile
  2995                           
  2996                           ;mcc_generated_files/pin_manager.c: 62:     LATC = 0x00;
  2997  01A0  019A               	clrf	26	;volatile
  2998  01A1                     l1276:
  2999                           
  3000                           ;mcc_generated_files/pin_manager.c: 67:     TRISA = 0x3F;
  3001  01A1  303F               	movlw	63
  3002  01A2  0092               	movwf	18	;volatile
  3003  01A3                     l1278:
  3004                           
  3005                           ;mcc_generated_files/pin_manager.c: 68:     TRISB = 0xF0;
  3006  01A3  30F0               	movlw	240
  3007  01A4  0093               	movwf	19	;volatile
  3008  01A5                     l1280:
  3009                           
  3010                           ;mcc_generated_files/pin_manager.c: 69:     TRISC = 0xFF;
  3011  01A5  30FF               	movlw	255
  3012  01A6  0094               	movwf	20	;volatile
  3013  01A7                     l1282:
  3014                           
  3015                           ;mcc_generated_files/pin_manager.c: 74:     ANSELC = 0xFF;
  3016  01A7  30FF               	movlw	255
  3017  01A8  017E               	movlb	62	; select bank62
  3018  01A9  00CE               	movwf	78	;volatile
  3019  01AA                     l1284:
  3020                           
  3021                           ;mcc_generated_files/pin_manager.c: 75:     ANSELB = 0x70;
  3022  01AA  3070               	movlw	112
  3023  01AB  00C3               	movwf	67	;volatile
  3024  01AC                     l1286:
  3025                           
  3026                           ;mcc_generated_files/pin_manager.c: 76:     ANSELA = 0x37;
  3027  01AC  3037               	movlw	55
  3028  01AD  00B8               	movwf	56	;volatile
  3029  01AE                     l1288:
  3030                           
  3031                           ;mcc_generated_files/pin_manager.c: 81:     WPUB = 0x80;
  3032  01AE  3080               	movlw	128
  3033  01AF  00C4               	movwf	68	;volatile
  3034  01B0                     l1290:
  3035                           
  3036                           ;mcc_generated_files/pin_manager.c: 82:     WPUA = 0x00;
  3037  01B0  01B9               	clrf	57	;volatile
  3038  01B1                     l1292:
  3039                           
  3040                           ;mcc_generated_files/pin_manager.c: 83:     WPUC = 0x00;
  3041  01B1  01CF               	clrf	79	;volatile
  3042  01B2                     l1294:
  3043                           
  3044                           ;mcc_generated_files/pin_manager.c: 88:     ODCONA = 0x00;
  3045  01B2  01BA               	clrf	58	;volatile
  3046  01B3                     l1296:
  3047                           
  3048                           ;mcc_generated_files/pin_manager.c: 89:     ODCONB = 0x00;
  3049  01B3  01C5               	clrf	69	;volatile
  3050  01B4                     l1298:
  3051                           
  3052                           ;mcc_generated_files/pin_manager.c: 90:     ODCONC = 0x00;
  3053  01B4  01D0               	clrf	80	;volatile
  3054                           
  3055                           ;mcc_generated_files/pin_manager.c: 95:     SLRCONA = 0x3F;
  3056  01B5  303F               	movlw	63
  3057  01B6  00BB               	movwf	59	;volatile
  3058  01B7                     l1300:
  3059                           
  3060                           ;mcc_generated_files/pin_manager.c: 96:     SLRCONB = 0x00;
  3061  01B7  01C6               	clrf	70	;volatile
  3062  01B8                     l1302:
  3063                           
  3064                           ;mcc_generated_files/pin_manager.c: 97:     SLRCONC = 0x3F;
  3065  01B8  303F               	movlw	63
  3066  01B9  00D1               	movwf	81	;volatile
  3067  01BA                     l1304:
  3068                           
  3069                           ;mcc_generated_files/pin_manager.c: 102:     INLVLA = 0x3F;
  3070  01BA  303F               	movlw	63
  3071  01BB  00BC               	movwf	60	;volatile
  3072  01BC                     l1306:
  3073                           
  3074                           ;mcc_generated_files/pin_manager.c: 103:     INLVLB = 0x00;
  3075  01BC  01C7               	clrf	71	;volatile
  3076                           
  3077                           ;mcc_generated_files/pin_manager.c: 104:     INLVLC = 0x3F;
  3078  01BD  303F               	movlw	63
  3079  01BE  00D2               	movwf	82	;volatile
  3080                           
  3081                           ;mcc_generated_files/pin_manager.c: 113:     INTPPS = 0x0F;
  3082  01BF  300F               	movlw	15
  3083  01C0  017D               	movlb	61	; select bank61
  3084  01C1  0090               	movwf	16	;volatile
  3085  01C2                     l225:
  3086  01C2  0008               	return
  3087  01C3                     __end_of_PIN_MANAGER_Initialize:
  3088                           
  3089                           	psect	text6
  3090  0276                     __ptext6:	
  3091 ;; *************** function _OSCILLATOR_Initialize *****************
  3092 ;; Defined at:
  3093 ;;		line 59 in file "mcc_generated_files/mcc.c"
  3094 ;; Parameters:    Size  Location     Type
  3095 ;;		None
  3096 ;; Auto vars:     Size  Location     Type
  3097 ;;		None
  3098 ;; Return value:  Size  Location     Type
  3099 ;;                  1    wreg      void 
  3100 ;; Registers used:
  3101 ;;		wreg, status,2
  3102 ;; Tracked objects:
  3103 ;;		On entry : 0/0
  3104 ;;		On exit  : 0/0
  3105 ;;		Unchanged: 0/0
  3106 ;; Data sizes:     COMMON   BANK0   BANK1   BANK2   BANK3   BANK4   BANK5   BANK6
  3107 ;;      Params:         0       0       0       0       0       0       0       0
  3108 ;;      Locals:         0       0       0       0       0       0       0       0
  3109 ;;      Temps:          0       0       0       0       0       0       0       0
  3110 ;;      Totals:         0       0       0       0       0       0       0       0
  3111 ;;Total ram usage:        0 bytes
  3112 ;; Hardware stack levels used: 1
  3113 ;; Hardware stack levels required when called: 5
  3114 ;; This function calls:
  3115 ;;		Nothing
  3116 ;; This function is called by:
  3117 ;;		_SYSTEM_Initialize
  3118 ;; This function uses a non-reentrant model
  3119 ;;
  3120                           
  3121  0276                     _OSCILLATOR_Initialize:	
  3122                           ;psect for function _OSCILLATOR_Initialize
  3123                           
  3124  0276                     l1308:	
  3125                           ;incstack = 0
  3126                           ; Regs used in _OSCILLATOR_Initialize: [wreg+status,2]
  3127                           
  3128                           
  3129                           ;mcc_generated_files/mcc.c: 62:     OSCCON1 = 0x60;
  3130  0276  3060               	movlw	96
  3131  0277  0151               	movlb	17	; select bank17
  3132  0278  008D               	movwf	13	;volatile
  3133  0279                     l1310:
  3134                           
  3135                           ;mcc_generated_files/mcc.c: 64:     OSCCON3 = 0x00;
  3136  0279  018F               	clrf	15	;volatile
  3137  027A                     l1312:
  3138                           
  3139                           ;mcc_generated_files/mcc.c: 66:     OSCEN = 0x00;
  3140  027A  0191               	clrf	17	;volatile
  3141                           
  3142                           ;mcc_generated_files/mcc.c: 68:     OSCFRQ = 0x03;
  3143  027B  3003               	movlw	3
  3144  027C  0093               	movwf	19	;volatile
  3145  027D                     l1314:
  3146                           
  3147                           ;mcc_generated_files/mcc.c: 70:     OSCSTAT = 0x00;
  3148  027D  0190               	clrf	16	;volatile
  3149  027E                     l1316:
  3150                           
  3151                           ;mcc_generated_files/mcc.c: 72:     OSCTUNE = 0x00;
  3152  027E  0192               	clrf	18	;volatile
  3153  027F                     l111:
  3154  027F  0008               	return
  3155  0280                     __end_of_OSCILLATOR_Initialize:
  3156                           
  3157                           	psect	text7
  3158  025A                     __ptext7:	
  3159 ;; *************** function _EXT_INT_Initialize *****************
  3160 ;; Defined at:
  3161 ;;		line 128 in file "mcc_generated_files/ext_int.c"
  3162 ;; Parameters:    Size  Location     Type
  3163 ;;		None
  3164 ;; Auto vars:     Size  Location     Type
  3165 ;;		None
  3166 ;; Return value:  Size  Location     Type
  3167 ;;                  1    wreg      void 
  3168 ;; Registers used:
  3169 ;;		wreg, status,2, status,0, pclath, cstack
  3170 ;; Tracked objects:
  3171 ;;		On entry : 0/0
  3172 ;;		On exit  : 0/0
  3173 ;;		Unchanged: 0/0
  3174 ;; Data sizes:     COMMON   BANK0   BANK1   BANK2   BANK3   BANK4   BANK5   BANK6
  3175 ;;      Params:         0       0       0       0       0       0       0       0
  3176 ;;      Locals:         0       0       0       0       0       0       0       0
  3177 ;;      Temps:          0       0       0       0       0       0       0       0
  3178 ;;      Totals:         0       0       0       0       0       0       0       0
  3179 ;;Total ram usage:        0 bytes
  3180 ;; Hardware stack levels used: 1
  3181 ;; Hardware stack levels required when called: 6
  3182 ;; This function calls:
  3183 ;;		_INT_SetInterruptHandler
  3184 ;; This function is called by:
  3185 ;;		_SYSTEM_Initialize
  3186 ;; This function uses a non-reentrant model
  3187 ;;
  3188                           
  3189  025A                     _EXT_INT_Initialize:	
  3190                           ;psect for function _EXT_INT_Initialize
  3191                           
  3192  025A                     l1266:	
  3193                           ;incstack = 0
  3194                           ; Regs used in _EXT_INT_Initialize: [wreg+status,2+status,0+pclath+cstack]
  3195                           
  3196                           
  3197                           ;mcc_generated_files/ext_int.c: 133:     (PIR0bits.INTF = 0);
  3198  025A  014E               	movlb	14	; select bank14
  3199  025B  100C               	bcf	12,0	;volatile
  3200                           
  3201                           ;mcc_generated_files/ext_int.c: 134:     (INTCONbits.INTEDG = 0);
  3202  025C  100B               	bcf	11,0	;volatile
  3203  025D                     l1268:
  3204                           
  3205                           ;mcc_generated_files/ext_int.c: 136:     INT_SetInterruptHandler(INT_DefaultInterruptHan
      +                          dler);
  3206  025D  3000               	movlw	0
  3207  025E  0140               	movlb	0	; select bank0
  3208  025F  00B2               	movwf	INT_SetInterruptHandler@InterruptHandler
  3209  0260  3000               	movlw	0
  3210  0261  00B3               	movwf	INT_SetInterruptHandler@InterruptHandler+1
  3211  0262  3182  229C  3182   	fcall	_INT_SetInterruptHandler
  3212  0265                     l1270:
  3213                           
  3214                           ;mcc_generated_files/ext_int.c: 137:     (PIE0bits.INTE = 1);
  3215  0265  014E               	movlb	14	; select bank14
  3216  0266  1416               	bsf	22,0	;volatile
  3217  0267                     l71:
  3218  0267  0008               	return
  3219  0268                     __end_of_EXT_INT_Initialize:
  3220                           
  3221                           	psect	text8
  3222  029C                     __ptext8:	
  3223 ;; *************** function _INT_SetInterruptHandler *****************
  3224 ;; Defined at:
  3225 ;;		line 119 in file "mcc_generated_files/ext_int.c"
  3226 ;; Parameters:    Size  Location     Type
  3227 ;;  InterruptHan    2    0[BANK0 ] PTR FTN()void 
  3228 ;;		 -> INT_DefaultInterruptHandler(1), 
  3229 ;; Auto vars:     Size  Location     Type
  3230 ;;		None
  3231 ;; Return value:  Size  Location     Type
  3232 ;;                  1    wreg      void 
  3233 ;; Registers used:
  3234 ;;		wreg
  3235 ;; Tracked objects:
  3236 ;;		On entry : 0/0
  3237 ;;		On exit  : 0/0
  3238 ;;		Unchanged: 0/0
  3239 ;; Data sizes:     COMMON   BANK0   BANK1   BANK2   BANK3   BANK4   BANK5   BANK6
  3240 ;;      Params:         0       2       0       0       0       0       0       0
  3241 ;;      Locals:         0       0       0       0       0       0       0       0
  3242 ;;      Temps:          0       0       0       0       0       0       0       0
  3243 ;;      Totals:         0       2       0       0       0       0       0       0
  3244 ;;Total ram usage:        2 bytes
  3245 ;; Hardware stack levels used: 1
  3246 ;; Hardware stack levels required when called: 5
  3247 ;; This function calls:
  3248 ;;		Nothing
  3249 ;; This function is called by:
  3250 ;;		_EXT_INT_Initialize
  3251 ;; This function uses a non-reentrant model
  3252 ;;
  3253                           
  3254  029C                     _INT_SetInterruptHandler:	
  3255                           ;psect for function _INT_SetInterruptHandler
  3256                           
  3257  029C                     l1194:	
  3258                           ;incstack = 0
  3259                           ; Regs used in _INT_SetInterruptHandler: [wreg]
  3260                           
  3261                           
  3262                           ;mcc_generated_files/ext_int.c: 120:     INT_InterruptHandler = InterruptHandler;
  3263  029C  0140               	movlb	0	; select bank0
  3264  029D  0833               	movf	INT_SetInterruptHandler@InterruptHandler+1,w
  3265  029E  00B1               	movwf	_INT_InterruptHandler+1
  3266  029F  0832               	movf	INT_SetInterruptHandler@InterruptHandler,w
  3267  02A0  00B0               	movwf	_INT_InterruptHandler
  3268  02A1                     l65:
  3269  02A1  0008               	return
  3270  02A2                     __end_of_INT_SetInterruptHandler:
  3271                           
  3272                           	psect	intentry
  3273  0004                     __pintentry:	
  3274 ;; *************** function _INTERRUPT_InterruptManager *****************
  3275 ;; Defined at:
  3276 ;;		line 52 in file "mcc_generated_files/interrupt_manager.c"
  3277 ;; Parameters:    Size  Location     Type
  3278 ;;		None
  3279 ;; Auto vars:     Size  Location     Type
  3280 ;;		None
  3281 ;; Return value:  Size  Location     Type
  3282 ;;                  1    wreg      void 
  3283 ;; Registers used:
  3284 ;;		wreg, fsr0l, fsr0h, fsr1l, fsr1h, status,2, status,0, pclath, cstack
  3285 ;; Tracked objects:
  3286 ;;		On entry : 0/0
  3287 ;;		On exit  : 0/0
  3288 ;;		Unchanged: 0/0
  3289 ;; Data sizes:     COMMON   BANK0   BANK1   BANK2   BANK3   BANK4   BANK5   BANK6
  3290 ;;      Params:         0       0       0       0       0       0       0       0
  3291 ;;      Locals:         0       0       0       0       0       0       0       0
  3292 ;;      Temps:          0       0       0       0       0       0       0       0
  3293 ;;      Totals:         0       0       0       0       0       0       0       0
  3294 ;;Total ram usage:        0 bytes
  3295 ;; Hardware stack levels used: 1
  3296 ;; Hardware stack levels required when called: 4
  3297 ;; This function calls:
  3298 ;;		_INT_ISR
  3299 ;;		_TMR1_ISR
  3300 ;; This function is called by:
  3301 ;;		Interrupt level 1
  3302 ;; This function uses a non-reentrant model
  3303 ;;
  3304                           
  3305  0004                     _INTERRUPT_InterruptManager:
  3306                           
  3307                           ;incstack = 0
  3308  0004  147E               	bsf	int$flags,0	;set compiler interrupt flag (level 1)
  3309                           
  3310                           ; Regs used in _INTERRUPT_InterruptManager: [wreg-fsr1h+status,2+status,0+pclath+cstack]
  3311  0005  3180               	pagesel	$
  3312  0006                     i1l1468:
  3313                           
  3314                           ;mcc_generated_files/interrupt_manager.c: 55:     if(PIE0bits.INTE == 1 && PIR0bits.INTF
      +                           == 1)
  3315  0006  014E               	movlb	14	; select bank14
  3316  0007  1C16               	btfss	22,0	;volatile
  3317  0008  280A               	goto	u65_21
  3318  0009  280B               	goto	u65_20
  3319  000A                     u65_21:
  3320  000A  2813               	goto	i1l19
  3321  000B                     u65_20:
  3322  000B                     i1l1470:
  3323  000B  1C0C               	btfss	12,0	;volatile
  3324  000C  280E               	goto	u66_21
  3325  000D  280F               	goto	u66_20
  3326  000E                     u66_21:
  3327  000E  2813               	goto	i1l19
  3328  000F                     u66_20:
  3329  000F                     i1l1472:
  3330                           
  3331                           ;mcc_generated_files/interrupt_manager.c: 56:     {;mcc_generated_files/interrupt_manage
      +                          r.c: 57:         INT_ISR();
  3332  000F  3180  2033  3180   	fcall	_INT_ISR
  3333                           
  3334                           ;mcc_generated_files/interrupt_manager.c: 58:     }
  3335  0012  2823               	goto	i1l25
  3336  0013                     i1l19:	
  3337                           ;mcc_generated_files/interrupt_manager.c: 59:     else if(INTCONbits.PEIE == 1)
  3338                           
  3339  0013  1F0B               	btfss	11,6	;volatile
  3340  0014  2816               	goto	u67_21
  3341  0015  2817               	goto	u67_20
  3342  0016                     u67_21:
  3343  0016  2823               	goto	i1l25
  3344  0017                     u67_20:
  3345  0017                     i1l1474:
  3346                           
  3347                           ;mcc_generated_files/interrupt_manager.c: 60:     {;mcc_generated_files/interrupt_manage
      +                          r.c: 61:         if(PIE4bits.TMR1IE == 1 && PIR4bits.TMR1IF == 1)
  3348  0017  1C1A               	btfss	26,0	;volatile
  3349  0018  281A               	goto	u68_21
  3350  0019  281B               	goto	u68_20
  3351  001A                     u68_21:
  3352  001A  2823               	goto	i1l24
  3353  001B                     u68_20:
  3354  001B                     i1l1476:
  3355  001B  1C10               	btfss	16,0	;volatile
  3356  001C  281E               	goto	u69_21
  3357  001D  281F               	goto	u69_20
  3358  001E                     u69_21:
  3359  001E  2823               	goto	i1l24
  3360  001F                     u69_20:
  3361  001F                     i1l1478:
  3362                           
  3363                           ;mcc_generated_files/interrupt_manager.c: 62:         {;mcc_generated_files/interrupt_ma
      +                          nager.c: 63:             TMR1_ISR();
  3364  001F  3182  2213  3180   	fcall	_TMR1_ISR
  3365                           
  3366                           ;mcc_generated_files/interrupt_manager.c: 64:         }
  3367  0022  2823               	goto	i1l25
  3368  0023                     i1l24:	
  3369                           ;mcc_generated_files/interrupt_manager.c: 71:     {;mcc_generated_files/interrupt_manage
      +                          r.c: 73:     }
  3370                           
  3371  0023                     i1l25:
  3372  0023  107E               	bcf	int$flags,0	;clear compiler interrupt flag (level 1)
  3373  0024  0009               	retfie
  3374  0025                     __end_of_INTERRUPT_InterruptManager:
  3375                           
  3376                           	psect	text10
  3377  0213                     __ptext10:	
  3378 ;; *************** function _TMR1_ISR *****************
  3379 ;; Defined at:
  3380 ;;		line 164 in file "mcc_generated_files/tmr1.c"
  3381 ;; Parameters:    Size  Location     Type
  3382 ;;		None
  3383 ;; Auto vars:     Size  Location     Type
  3384 ;;		None
  3385 ;; Return value:  Size  Location     Type
  3386 ;;                  1    wreg      void 
  3387 ;; Registers used:
  3388 ;;		wreg, status,2, status,0, pclath, cstack
  3389 ;; Tracked objects:
  3390 ;;		On entry : 0/0
  3391 ;;		On exit  : 0/0
  3392 ;;		Unchanged: 0/0
  3393 ;; Data sizes:     COMMON   BANK0   BANK1   BANK2   BANK3   BANK4   BANK5   BANK6
  3394 ;;      Params:         0       0       0       0       0       0       0       0
  3395 ;;      Locals:         0       0       0       0       0       0       0       0
  3396 ;;      Temps:          0       0       0       0       0       0       0       0
  3397 ;;      Totals:         0       0       0       0       0       0       0       0
  3398 ;;Total ram usage:        0 bytes
  3399 ;; Hardware stack levels used: 1
  3400 ;; Hardware stack levels required when called: 1
  3401 ;; This function calls:
  3402 ;;		Absolute function
  3403 ;;		_TMR1_DefaultInterruptHandler
  3404 ;;		_TMR1_WriteTimer
  3405 ;; This function is called by:
  3406 ;;		_INTERRUPT_InterruptManager
  3407 ;; This function uses a non-reentrant model
  3408 ;;
  3409                           
  3410  0213                     _TMR1_ISR:	
  3411                           ;psect for function _TMR1_ISR
  3412                           
  3413  0213                     i1l1450:	
  3414                           ;incstack = 0
  3415                           ; Regs used in _TMR1_ISR: [wreg+status,2+status,0+pclath+cstack]
  3416                           
  3417                           
  3418                           ;mcc_generated_files/tmr1.c: 168:     PIR4bits.TMR1IF = 0;
  3419  0213  014E               	movlb	14	; select bank14
  3420  0214  1010               	bcf	16,0	;volatile
  3421  0215                     i1l1452:
  3422                           
  3423                           ;mcc_generated_files/tmr1.c: 169:     TMR1_WriteTimer(timer1ReloadVal);
  3424  0215  087D               	movf	_timer1ReloadVal+1,w	;volatile
  3425  0216  00F1               	movwf	TMR1_WriteTimer@timerVal+1
  3426  0217  087C               	movf	_timer1ReloadVal,w	;volatile
  3427  0218  00F0               	movwf	TMR1_WriteTimer@timerVal
  3428  0219  3182  2229  3182   	fcall	_TMR1_WriteTimer
  3429  021C                     i1l1454:
  3430                           
  3431                           ;mcc_generated_files/tmr1.c: 171:     if(TMR1_InterruptHandler)
  3432  021C  0140               	movlb	0	; select bank0
  3433  021D  082E               	movf	_TMR1_InterruptHandler,w
  3434  021E  042F               	iorwf	_TMR1_InterruptHandler+1,w
  3435  021F  1903               	btfsc	3,2
  3436  0220  2A22               	goto	u64_21
  3437  0221  2A23               	goto	u64_20
  3438  0222                     u64_21:
  3439  0222  2A28               	goto	i1l172
  3440  0223                     u64_20:
  3441  0223                     i1l1456:
  3442                           
  3443                           ;mcc_generated_files/tmr1.c: 172:     {;mcc_generated_files/tmr1.c: 173:         TMR1_In
      +                          terruptHandler();
  3444  0223  082F               	movf	_TMR1_InterruptHandler+1,w
  3445  0224  008A               	movwf	10
  3446  0225  082E               	movf	_TMR1_InterruptHandler,w
  3447  0226  000A               	callw
  3448  0227  3182               	pagesel	$
  3449  0228                     i1l172:
  3450  0228  0008               	return
  3451  0229                     __end_of_TMR1_ISR:
  3452                           
  3453                           	psect	text11
  3454  0229                     __ptext11:	
  3455 ;; *************** function _TMR1_WriteTimer *****************
  3456 ;; Defined at:
  3457 ;;		line 127 in file "mcc_generated_files/tmr1.c"
  3458 ;; Parameters:    Size  Location     Type
  3459 ;;  timerVal        2    0[COMMON] unsigned short 
  3460 ;; Auto vars:     Size  Location     Type
  3461 ;;		None
  3462 ;; Return value:  Size  Location     Type
  3463 ;;                  1    wreg      void 
  3464 ;; Registers used:
  3465 ;;		wreg, status,2
  3466 ;; Tracked objects:
  3467 ;;		On entry : 0/0
  3468 ;;		On exit  : 0/0
  3469 ;;		Unchanged: 0/0
  3470 ;; Data sizes:     COMMON   BANK0   BANK1   BANK2   BANK3   BANK4   BANK5   BANK6
  3471 ;;      Params:         2       0       0       0       0       0       0       0
  3472 ;;      Locals:         0       0       0       0       0       0       0       0
  3473 ;;      Temps:          0       0       0       0       0       0       0       0
  3474 ;;      Totals:         2       0       0       0       0       0       0       0
  3475 ;;Total ram usage:        2 bytes
  3476 ;; Hardware stack levels used: 1
  3477 ;; This function calls:
  3478 ;;		Nothing
  3479 ;; This function is called by:
  3480 ;;		_TMR1_ISR
  3481 ;;		_TMR1_Reload
  3482 ;; This function uses a non-reentrant model
  3483 ;;
  3484                           
  3485  0229                     _TMR1_WriteTimer:	
  3486                           ;psect for function _TMR1_WriteTimer
  3487                           
  3488  0229                     i1l1336:	
  3489                           ;incstack = 0
  3490                           ; Regs used in _TMR1_WriteTimer: [wreg+status,2]
  3491                           
  3492                           
  3493                           ;mcc_generated_files/tmr1.c: 127: void TMR1_WriteTimer(uint16_t timerVal);mcc_generated_
      +                          files/tmr1.c: 128: {;mcc_generated_files/tmr1.c: 129:     if (T1CONbits.nT1SYNC == 1)
  3494  0229  0144               	movlb	4	; select bank4
  3495  022A  1D0E               	btfss	14,2	;volatile
  3496  022B  2A2D               	goto	u46_21
  3497  022C  2A2E               	goto	u46_20
  3498  022D                     u46_21:
  3499  022D  2A35               	goto	i1l1346
  3500  022E                     u46_20:
  3501  022E                     i1l1338:
  3502                           
  3503                           ;mcc_generated_files/tmr1.c: 130:     {;mcc_generated_files/tmr1.c: 132:         T1CONbi
      +                          ts.TMR1ON = 0;
  3504  022E  100E               	bcf	14,0	;volatile
  3505  022F                     i1l1340:
  3506                           
  3507                           ;mcc_generated_files/tmr1.c: 135:         TMR1H = (uint8_t)(timerVal >> 8);
  3508  022F  0871               	movf	TMR1_WriteTimer@timerVal+1,w
  3509  0230  008D               	movwf	13	;volatile
  3510  0231                     i1l1342:
  3511                           
  3512                           ;mcc_generated_files/tmr1.c: 136:         TMR1L = (uint8_t)timerVal;
  3513  0231  0870               	movf	TMR1_WriteTimer@timerVal,w
  3514  0232  008C               	movwf	12	;volatile
  3515  0233                     i1l1344:
  3516                           
  3517                           ;mcc_generated_files/tmr1.c: 139:         T1CONbits.TMR1ON =1;
  3518  0233  140E               	bsf	14,0	;volatile
  3519                           
  3520                           ;mcc_generated_files/tmr1.c: 140:     }
  3521  0234  2A39               	goto	i1l159
  3522  0235                     i1l1346:
  3523                           
  3524                           ;mcc_generated_files/tmr1.c: 142:     {;mcc_generated_files/tmr1.c: 144:         TMR1H =
      +                           (uint8_t)(timerVal >> 8);
  3525  0235  0871               	movf	TMR1_WriteTimer@timerVal+1,w
  3526  0236  008D               	movwf	13	;volatile
  3527  0237                     i1l1348:
  3528                           
  3529                           ;mcc_generated_files/tmr1.c: 145:         TMR1L = (uint8_t)timerVal;
  3530  0237  0870               	movf	TMR1_WriteTimer@timerVal,w
  3531  0238  008C               	movwf	12	;volatile
  3532  0239                     i1l159:
  3533  0239  0008               	return
  3534  023A                     __end_of_TMR1_WriteTimer:
  3535                           
  3536                           	psect	text12
  3537  02A2                     __ptext12:	
  3538 ;; *************** function _TMR1_DefaultInterruptHandler *****************
  3539 ;; Defined at:
  3540 ;;		line 182 in file "mcc_generated_files/tmr1.c"
  3541 ;; Parameters:    Size  Location     Type
  3542 ;;		None
  3543 ;; Auto vars:     Size  Location     Type
  3544 ;;		None
  3545 ;; Return value:  Size  Location     Type
  3546 ;;                  1    wreg      void 
  3547 ;; Registers used:
  3548 ;;		None
  3549 ;; Tracked objects:
  3550 ;;		On entry : 0/0
  3551 ;;		On exit  : 0/0
  3552 ;;		Unchanged: 0/0
  3553 ;; Data sizes:     COMMON   BANK0   BANK1   BANK2   BANK3   BANK4   BANK5   BANK6
  3554 ;;      Params:         0       0       0       0       0       0       0       0
  3555 ;;      Locals:         0       0       0       0       0       0       0       0
  3556 ;;      Temps:          0       0       0       0       0       0       0       0
  3557 ;;      Totals:         0       0       0       0       0       0       0       0
  3558 ;;Total ram usage:        0 bytes
  3559 ;; Hardware stack levels used: 1
  3560 ;; This function calls:
  3561 ;;		Nothing
  3562 ;; This function is called by:
  3563 ;;		_TMR1_Initialize
  3564 ;;		_TMR1_ISR
  3565 ;; This function uses a non-reentrant model
  3566 ;;
  3567                           
  3568  02A2                     _TMR1_DefaultInterruptHandler:	
  3569                           ;psect for function _TMR1_DefaultInterruptHandler
  3570                           
  3571  02A2                     i1l178:	
  3572                           ;incstack = 0
  3573                           ; Regs used in _TMR1_DefaultInterruptHandler: []
  3574                           
  3575  02A2  0008               	return
  3576  02A3                     __end_of_TMR1_DefaultInterruptHandler:
  3577                           
  3578                           	psect	text13
  3579  0033                     __ptext13:	
  3580 ;; *************** function _INT_ISR *****************
  3581 ;; Defined at:
  3582 ;;		line 35 in file "mcc_generated_files/ext_int.c"
  3583 ;; Parameters:    Size  Location     Type
  3584 ;;		None
  3585 ;; Auto vars:     Size  Location     Type
  3586 ;;		None
  3587 ;; Return value:  Size  Location     Type
  3588 ;;                  1    wreg      void 
  3589 ;; Registers used:
  3590 ;;		wreg, fsr0l, fsr0h, fsr1l, fsr1h, status,2, status,0, pclath, cstack
  3591 ;; Tracked objects:
  3592 ;;		On entry : 0/0
  3593 ;;		On exit  : 0/0
  3594 ;;		Unchanged: 0/0
  3595 ;; Data sizes:     COMMON   BANK0   BANK1   BANK2   BANK3   BANK4   BANK5   BANK6
  3596 ;;      Params:         0       0       0       0       0       0       0       0
  3597 ;;      Locals:         0       0       0       0       0       0       0       0
  3598 ;;      Temps:          3       0       0       0       0       0       0       0
  3599 ;;      Totals:         3       0       0       0       0       0       0       0
  3600 ;;Total ram usage:        3 bytes
  3601 ;; Hardware stack levels used: 1
  3602 ;; Hardware stack levels required when called: 3
  3603 ;; This function calls:
  3604 ;;		___awdiv
  3605 ;;		_get_pulse_length
  3606 ;;		_save_data
  3607 ;; This function is called by:
  3608 ;;		_INTERRUPT_InterruptManager
  3609 ;; This function uses a non-reentrant model
  3610 ;;
  3611                           
  3612  0033                     _INT_ISR:	
  3613                           ;psect for function _INT_ISR
  3614                           
  3615  0033                     i1l1394:	
  3616                           ;incstack = 0
  3617                           ; Regs used in _INT_ISR: [wreg-fsr1h+status,2+status,0+pclath+cstack]
  3618                           
  3619                           
  3620                           ;mcc_generated_files/ext_int.c: 37:     (PIR0bits.INTF = 0);
  3621  0033  014E               	movlb	14	; select bank14
  3622  0034  100C               	bcf	12,0	;volatile
  3623                           
  3624                           ;mcc_generated_files/ext_int.c: 39:       if(PIR0bits.INTF==0)
  3625  0035  180C               	btfsc	12,0	;volatile
  3626  0036  2838               	goto	u57_21
  3627  0037  2839               	goto	u57_20
  3628  0038                     u57_21:
  3629  0038  28AF               	goto	i1l46
  3630  0039                     u57_20:
  3631  0039  2899               	goto	i1l1426
  3632  003A                     i1l1398:
  3633  003A  014B               	movlb	11	; select bank11
  3634  003B  019C               	clrf	28	;volatile
  3635  003C                     i1l1400:
  3636                           
  3637                           ;mcc_generated_files/ext_int.c: 48:                             PIE0bits.TMR0IE=1;
  3638  003C  014E               	movlb	14	; select bank14
  3639  003D  1696               	bsf	22,5	;volatile
  3640  003E                     i1l1402:
  3641                           
  3642                           ;mcc_generated_files/ext_int.c: 49:                             PIR0bits.TMR0IF=0;
  3643  003E  128C               	bcf	12,5	;volatile
  3644                           
  3645                           ;mcc_generated_files/ext_int.c: 51:                             Decoder.bit_counter = 0;
  3646  003F  0140               	movlb	0	; select bank0
  3647  0040  01A7               	clrf	_Decoder+7	;volatile
  3648                           
  3649                           ;mcc_generated_files/ext_int.c: 52:                             Decoder.rc_data = 0;
  3650  0041  01A8               	clrf	_Decoder+8	;volatile
  3651  0042  01A9               	clrf	_Decoder+9	;volatile
  3652  0043                     i1l1404:
  3653                           
  3654                           ;mcc_generated_files/ext_int.c: 53:                             Decoder.State =CALIBRATE
      +                          _S;
  3655  0043  3001               	movlw	1
  3656  0044  00F9               	movwf	??_INT_ISR
  3657  0045  0879               	movf	??_INT_ISR,w
  3658  0046  00A0               	movwf	_Decoder	;volatile
  3659                           
  3660                           ;mcc_generated_files/ext_int.c: 54:                             break;
  3661  0047  28AD               	goto	i1l49
  3662  0048                     i1l1406:
  3663  0048  014B               	movlb	11	; select bank11
  3664  0049  081C               	movf	28,w	;volatile
  3665  004A  00F9               	movwf	??_INT_ISR
  3666  004B  0879               	movf	??_INT_ISR,w
  3667  004C  0140               	movlb	0	; select bank0
  3668  004D  00A2               	movwf	_Decoder+2	;volatile
  3669  004E                     i1l1408:
  3670                           
  3671                           ;mcc_generated_files/ext_int.c: 57:                             TMR0 = 0;
  3672  004E  014B               	movlb	11	; select bank11
  3673  004F  019C               	clrf	28	;volatile
  3674  0050                     i1l1410:
  3675                           
  3676                           ;mcc_generated_files/ext_int.c: 60:                             Decoder.pulse_t2 = Decod
      +                          er.pulse_t1 + (Decoder.pulse_t1 / 2);
  3677  0050  3002               	movlw	2
  3678  0051  00F0               	movwf	___awdiv@divisor
  3679  0052  3000               	movlw	0
  3680  0053  00F1               	movwf	___awdiv@divisor+1
  3681  0054  0140               	movlb	0	; select bank0
  3682  0055  0822               	movf	_Decoder+2,w	;volatile
  3683  0056  00F9               	movwf	??_INT_ISR
  3684  0057  01FA               	clrf	??_INT_ISR+1
  3685  0058  0879               	movf	??_INT_ISR,w
  3686  0059  00F2               	movwf	___awdiv@dividend
  3687  005A  087A               	movf	??_INT_ISR+1,w
  3688  005B  00F3               	movwf	___awdiv@dividend+1
  3689  005C  3180  20F8  3180   	fcall	___awdiv
  3690  005F  0870               	movf	?___awdiv,w
  3691  0060  0140               	movlb	0	; select bank0
  3692  0061  0722               	addwf	_Decoder+2,w	;volatile
  3693  0062  00FB               	movwf	??_INT_ISR+2
  3694  0063  087B               	movf	??_INT_ISR+2,w
  3695  0064  00A3               	movwf	_Decoder+3	;volatile
  3696  0065                     i1l1412:
  3697                           
  3698                           ;mcc_generated_files/ext_int.c: 61:                             Decoder.pulse_t3 = Decod
      +                          er.pulse_t1 * 2;
  3699  0065  3522               	lslf	_Decoder+2,w	;volatile
  3700  0066  00F9               	movwf	??_INT_ISR
  3701  0067  0879               	movf	??_INT_ISR,w
  3702  0068  00A4               	movwf	_Decoder+4	;volatile
  3703  0069                     i1l1414:
  3704                           
  3705                           ;mcc_generated_files/ext_int.c: 62:                             Decoder.tolerance = Deco
      +                          der.pulse_t1 / 8;
  3706  0069  3008               	movlw	8
  3707  006A  00F0               	movwf	___awdiv@divisor
  3708  006B  3000               	movlw	0
  3709  006C  00F1               	movwf	___awdiv@divisor+1
  3710  006D  0822               	movf	_Decoder+2,w	;volatile
  3711  006E  00F9               	movwf	??_INT_ISR
  3712  006F  01FA               	clrf	??_INT_ISR+1
  3713  0070  0879               	movf	??_INT_ISR,w
  3714  0071  00F2               	movwf	___awdiv@dividend
  3715  0072  087A               	movf	??_INT_ISR+1,w
  3716  0073  00F3               	movwf	___awdiv@dividend+1
  3717  0074  3180  20F8  3180   	fcall	___awdiv
  3718  0077  0870               	movf	?___awdiv,w
  3719  0078  00FB               	movwf	??_INT_ISR+2
  3720  0079  087B               	movf	??_INT_ISR+2,w
  3721  007A  0140               	movlb	0	; select bank0
  3722  007B  00A5               	movwf	_Decoder+5	;volatile
  3723  007C                     i1l1416:
  3724                           
  3725                           ;mcc_generated_files/ext_int.c: 63:                             Decoder.last_bit = 1;
  3726  007C  3001               	movlw	1
  3727  007D  00F9               	movwf	??_INT_ISR
  3728  007E  0879               	movf	??_INT_ISR,w
  3729  007F  00A6               	movwf	_Decoder+6	;volatile
  3730  0080                     i1l1418:
  3731                           
  3732                           ;mcc_generated_files/ext_int.c: 64:                             Decoder.State = DATA_S;
  3733  0080  3002               	movlw	2
  3734  0081  00F9               	movwf	??_INT_ISR
  3735  0082  0879               	movf	??_INT_ISR,w
  3736  0083  00A0               	movwf	_Decoder	;volatile
  3737                           
  3738                           ;mcc_generated_files/ext_int.c: 65:                             break;
  3739  0084  28AD               	goto	i1l49
  3740  0085                     i1l1420:
  3741  0085  3181  2157  3180   	fcall	_get_pulse_length
  3742  0088  3A00               	xorlw	0
  3743  0089  1D03               	skipz
  3744  008A  288C               	goto	u58_21
  3745  008B  288D               	goto	u58_20
  3746  008C                     u58_21:
  3747  008C  2893               	goto	i1l52
  3748  008D                     u58_20:
  3749  008D                     i1l1422:
  3750                           
  3751                           ;mcc_generated_files/ext_int.c: 68:                               Decoder.State = DATA_S
      +                          ;
  3752  008D  3002               	movlw	2
  3753  008E  00F9               	movwf	??_INT_ISR
  3754  008F  0879               	movf	??_INT_ISR,w
  3755  0090  0140               	movlb	0	; select bank0
  3756  0091  00A0               	movwf	_Decoder	;volatile
  3757                           
  3758                           ;mcc_generated_files/ext_int.c: 69:                               }
  3759  0092  28AD               	goto	i1l49
  3760  0093                     i1l52:	
  3761                           ;mcc_generated_files/ext_int.c: 70:                             else{
  3762                           
  3763                           
  3764                           ;mcc_generated_files/ext_int.c: 72:                                 PIR0bits.TMR0IF=1;
  3765  0093  014E               	movlb	14	; select bank14
  3766  0094  168C               	bsf	12,5	;volatile
  3767  0095  28AD               	goto	i1l49
  3768  0096                     i1l54:	
  3769                           ;mcc_generated_files/ext_int.c: 76:           default: PIR0bits.TMR0IF=1;
  3770                           
  3771  0096  014E               	movlb	14	; select bank14
  3772  0097  168C               	bsf	12,5	;volatile
  3773                           
  3774                           ;mcc_generated_files/ext_int.c: 77:                             break;
  3775  0098  28AD               	goto	i1l49
  3776  0099                     i1l1426:
  3777  0099  0140               	movlb	0	; select bank0
  3778  009A  0820               	movf	_Decoder,w	;volatile
  3779  009B  00F9               	movwf	??_INT_ISR
  3780  009C  01FA               	clrf	??_INT_ISR+1
  3781                           
  3782                           ; Switch on 2 bytes has been partitioned into a top level switch of size 1, and 1 sub-sw
      +                          itches
  3783                           ; Switch size 1, requested type "simple"
  3784                           ; Number of cases is 1, Range of values is 0 to 0
  3785                           ; switch strategies available:
  3786                           ; Name         Instructions Cycles
  3787                           ; simple_byte            4     3 (average)
  3788                           ; direct_byte            8     6 (fixed)
  3789                           ; jumptable            260     6 (fixed)
  3790                           ;	Chosen strategy is simple_byte
  3791  009D  087A               	movf	??_INT_ISR+1,w
  3792  009E  3A00               	xorlw	0	; case 0
  3793  009F  1903               	skipnz
  3794  00A0  28A2               	goto	i1l1522
  3795  00A1  2896               	goto	i1l54
  3796  00A2                     i1l1522:
  3797                           
  3798                           ; Switch size 1, requested type "simple"
  3799                           ; Number of cases is 3, Range of values is 0 to 2
  3800                           ; switch strategies available:
  3801                           ; Name         Instructions Cycles
  3802                           ; simple_byte           10     6 (average)
  3803                           ; direct_byte           12     6 (fixed)
  3804                           ; jumptable            260     6 (fixed)
  3805                           ;	Chosen strategy is simple_byte
  3806  00A2  0879               	movf	??_INT_ISR,w
  3807  00A3  3A00               	xorlw	0	; case 0
  3808  00A4  1903               	skipnz
  3809  00A5  283A               	goto	i1l1398
  3810  00A6  3A01               	xorlw	1	; case 1
  3811  00A7  1903               	skipnz
  3812  00A8  2848               	goto	i1l1406
  3813  00A9  3A03               	xorlw	3	; case 2
  3814  00AA  1903               	skipnz
  3815  00AB  2885               	goto	i1l1420
  3816  00AC  2896               	goto	i1l54
  3817  00AD                     i1l49:
  3818                           
  3819                           ;mcc_generated_files/ext_int.c: 79:         PIR0bits.INTF=0;
  3820  00AD  014E               	movlb	14	; select bank14
  3821  00AE  100C               	bcf	12,0	;volatile
  3822  00AF                     i1l46:	
  3823                           ;mcc_generated_files/ext_int.c: 80:     }
  3824                           
  3825                           
  3826                           ;mcc_generated_files/ext_int.c: 83:     if(PIE0bits.TMR0IE)
  3827  00AF  1E96               	btfss	22,5	;volatile
  3828  00B0  28B2               	goto	u59_21
  3829  00B1  28B3               	goto	u59_20
  3830  00B2                     u59_21:
  3831  00B2  28F7               	goto	i1l58
  3832  00B3                     u59_20:
  3833  00B3                     i1l1428:
  3834                           
  3835                           ;mcc_generated_files/ext_int.c: 84:     {;mcc_generated_files/ext_int.c: 85:         if(
      +                          Decoder.bit_counter == 0x0b)
  3836  00B3  300B               	movlw	11
  3837  00B4  0140               	movlb	0	; select bank0
  3838  00B5  0627               	xorwf	_Decoder+7,w	;volatile
  3839  00B6  1D03               	btfss	3,2
  3840  00B7  28B9               	goto	u60_21
  3841  00B8  28BA               	goto	u60_20
  3842  00B9                     u60_21:
  3843  00B9  28BE               	goto	i1l1432
  3844  00BA                     u60_20:
  3845  00BA                     i1l1430:
  3846                           
  3847                           ;mcc_generated_files/ext_int.c: 86:         {;mcc_generated_files/ext_int.c: 87:        
      +                               save_data(0);
  3848  00BA  3000               	movlw	0
  3849  00BB  3181  21FC  3180   	fcall	_save_data
  3850  00BE                     i1l1432:
  3851                           
  3852                           ;mcc_generated_files/ext_int.c: 90:         if(Decoder.bit_counter == 0x0c)
  3853  00BE  300C               	movlw	12
  3854  00BF  0140               	movlb	0	; select bank0
  3855  00C0  0627               	xorwf	_Decoder+7,w	;volatile
  3856  00C1  1D03               	btfss	3,2
  3857  00C2  28C4               	goto	u61_21
  3858  00C3  28C5               	goto	u61_20
  3859  00C4                     u61_21:
  3860  00C4  28F2               	goto	i1l1442
  3861  00C5                     u61_20:
  3862  00C5                     i1l1434:
  3863                           
  3864                           ;mcc_generated_files/ext_int.c: 91:         {;mcc_generated_files/ext_int.c: 92:        
      +                               RC5_Code.address = (Decoder.rc_data >> 6) & 0x001f;
  3865  00C5  3008               	movlw	8
  3866  00C6  3E20               	addlw	(low (_Decoder| 0))& (0+255)
  3867  00C7  0086               	movwf	6
  3868  00C8  0187               	clrf	7
  3869  00C9  3F40               	moviw [0]fsr1
  3870  00CA  00F9               	movwf	??_INT_ISR
  3871  00CB  3F41               	moviw [1]fsr1
  3872  00CC  00FA               	movwf	??_INT_ISR+1
  3873  00CD  3006               	movlw	6
  3874  00CE                     u62_25:
  3875  00CE  36FA               	lsrf	??_INT_ISR+1,f
  3876  00CF  0CF9               	rrf	??_INT_ISR,f
  3877  00D0  0B89               	decfsz	9,f
  3878  00D1  28CE               	goto	u62_25
  3879  00D2  0879               	movf	??_INT_ISR,w
  3880  00D3  391F               	andlw	31
  3881  00D4  00FB               	movwf	??_INT_ISR+2
  3882  00D5  087B               	movf	??_INT_ISR+2,w
  3883  00D6  00AB               	movwf	_RC5_Code+1	;volatile
  3884  00D7                     i1l1436:
  3885                           
  3886                           ;mcc_generated_files/ext_int.c: 93:             RC5_Code.command = Decoder.rc_data & 0x0
      +                          03f;
  3887  00D7  0828               	movf	_Decoder+8,w	;volatile
  3888  00D8  393F               	andlw	63
  3889  00D9  00F9               	movwf	??_INT_ISR
  3890  00DA  0879               	movf	??_INT_ISR,w
  3891  00DB  00AC               	movwf	_RC5_Code+2	;volatile
  3892  00DC                     i1l1438:
  3893                           
  3894                           ;mcc_generated_files/ext_int.c: 94:             RC5_Code.toggle = (Decoder.rc_data >> 11
      +                          ) & 0x0001;
  3895  00DC  3008               	movlw	8
  3896  00DD  3E20               	addlw	(low (_Decoder| 0))& (0+255)
  3897  00DE  0086               	movwf	6
  3898  00DF  0187               	clrf	7
  3899  00E0  3F40               	moviw [0]fsr1
  3900  00E1  00F9               	movwf	??_INT_ISR
  3901  00E2  3F41               	moviw [1]fsr1
  3902  00E3  00FA               	movwf	??_INT_ISR+1
  3903  00E4  300B               	movlw	11
  3904  00E5                     u63_25:
  3905  00E5  36FA               	lsrf	??_INT_ISR+1,f
  3906  00E6  0CF9               	rrf	??_INT_ISR,f
  3907  00E7  0B89               	decfsz	9,f
  3908  00E8  28E5               	goto	u63_25
  3909  00E9  0879               	movf	??_INT_ISR,w
  3910  00EA  3901               	andlw	1
  3911  00EB  00FB               	movwf	??_INT_ISR+2
  3912  00EC  087B               	movf	??_INT_ISR+2,w
  3913  00ED  00AA               	movwf	_RC5_Code	;volatile
  3914  00EE                     i1l1440:
  3915                           
  3916                           ;mcc_generated_files/ext_int.c: 95:             RC5_Code.valid = 1;
  3917  00EE  3001               	movlw	1
  3918  00EF  00F9               	movwf	??_INT_ISR
  3919  00F0  0879               	movf	??_INT_ISR,w
  3920  00F1  00AD               	movwf	_RC5_Code+3	;volatile
  3921  00F2                     i1l1442:
  3922                           
  3923                           ;mcc_generated_files/ext_int.c: 100:         PIE0bits.TMR0IE=0;
  3924  00F2  014E               	movlb	14	; select bank14
  3925  00F3  1296               	bcf	22,5	;volatile
  3926  00F4                     i1l1444:
  3927                           
  3928                           ;mcc_generated_files/ext_int.c: 101:         PIR0bits.TMR0IF=0;
  3929  00F4  128C               	bcf	12,5	;volatile
  3930                           
  3931                           ;mcc_generated_files/ext_int.c: 102:         Decoder.State = START_S;
  3932  00F5  0140               	movlb	0	; select bank0
  3933  00F6  01A0               	clrf	_Decoder	;volatile
  3934  00F7                     i1l58:
  3935  00F7  0008               	return
  3936  00F8                     __end_of_INT_ISR:
  3937                           
  3938                           	psect	text14
  3939  0157                     __ptext14:	
  3940 ;; *************** function _get_pulse_length *****************
  3941 ;; Defined at:
  3942 ;;		line 129 in file "rc5_decoder.c"
  3943 ;; Parameters:    Size  Location     Type
  3944 ;;		None
  3945 ;; Auto vars:     Size  Location     Type
  3946 ;;  min             1    5[COMMON] unsigned char 
  3947 ;;  max             1    4[COMMON] unsigned char 
  3948 ;; Return value:  Size  Location     Type
  3949 ;;                  1    wreg      unsigned char 
  3950 ;; Registers used:
  3951 ;;		wreg, status,2, status,0, pclath, cstack
  3952 ;; Tracked objects:
  3953 ;;		On entry : 0/0
  3954 ;;		On exit  : 0/0
  3955 ;;		Unchanged: 0/0
  3956 ;; Data sizes:     COMMON   BANK0   BANK1   BANK2   BANK3   BANK4   BANK5   BANK6
  3957 ;;      Params:         0       0       0       0       0       0       0       0
  3958 ;;      Locals:         2       0       0       0       0       0       0       0
  3959 ;;      Temps:          1       0       0       0       0       0       0       0
  3960 ;;      Totals:         3       0       0       0       0       0       0       0
  3961 ;;Total ram usage:        3 bytes
  3962 ;; Hardware stack levels used: 1
  3963 ;; Hardware stack levels required when called: 2
  3964 ;; This function calls:
  3965 ;;		_one_type_pulse
  3966 ;;		_three_type_pulse
  3967 ;;		_two_type_pulse
  3968 ;; This function is called by:
  3969 ;;		_INT_ISR
  3970 ;; This function uses a non-reentrant model
  3971 ;;
  3972                           
  3973  0157                     _get_pulse_length:	
  3974                           ;psect for function _get_pulse_length
  3975                           
  3976  0157                     i1l1218:	
  3977                           ;incstack = 0
  3978                           ; Regs used in _get_pulse_length: [wreg+status,2+status,0+pclath+cstack]
  3979                           
  3980                           
  3981                           ;rc5_decoder.c: 131:   unsigned char max, min;;rc5_decoder.c: 133:   Decoder.bit_time = 
      +                          TMR0;
  3982  0157  014B               	movlb	11	; select bank11
  3983  0158  081C               	movf	28,w	;volatile
  3984  0159  00F3               	movwf	??_get_pulse_length
  3985  015A  0873               	movf	??_get_pulse_length,w
  3986  015B  0140               	movlb	0	; select bank0
  3987  015C  00A1               	movwf	_Decoder+1	;volatile
  3988  015D                     i1l1220:
  3989                           
  3990                           ;rc5_decoder.c: 134:   TMR0 = 0;
  3991  015D  014B               	movlb	11	; select bank11
  3992  015E  019C               	clrf	28	;volatile
  3993  015F                     i1l1222:
  3994                           
  3995                           ;rc5_decoder.c: 136:   max = Decoder.bit_time + Decoder.tolerance;
  3996  015F  0140               	movlb	0	; select bank0
  3997  0160  0821               	movf	_Decoder+1,w	;volatile
  3998  0161  0725               	addwf	_Decoder+5,w	;volatile
  3999  0162  00F3               	movwf	??_get_pulse_length
  4000  0163  0873               	movf	??_get_pulse_length,w
  4001  0164  00F4               	movwf	get_pulse_length@max
  4002  0165                     i1l1224:
  4003                           
  4004                           ;rc5_decoder.c: 137:   min = Decoder.bit_time - Decoder.tolerance;
  4005  0165  0825               	movf	_Decoder+5,w	;volatile
  4006  0166  0221               	subwf	_Decoder+1,w	;volatile
  4007  0167  00F3               	movwf	??_get_pulse_length
  4008  0168  0873               	movf	??_get_pulse_length,w
  4009  0169  00F5               	movwf	get_pulse_length@min
  4010  016A                     i1l1226:
  4011                           
  4012                           ;rc5_decoder.c: 139:   if((Decoder.pulse_t1 >= min) && (Decoder.pulse_t1 <= max)){
  4013  016A  0875               	movf	get_pulse_length@min,w
  4014  016B  0222               	subwf	_Decoder+2,w	;volatile
  4015  016C  1C03               	skipc
  4016  016D  296F               	goto	u40_21
  4017  016E  2970               	goto	u40_20
  4018  016F                     u40_21:
  4019  016F  297B               	goto	i1l1238
  4020  0170                     u40_20:
  4021  0170                     i1l1228:
  4022  0170  0822               	movf	_Decoder+2,w	;volatile
  4023  0171  0274               	subwf	get_pulse_length@max,w
  4024  0172  1C03               	skipc
  4025  0173  2975               	goto	u41_21
  4026  0174  2976               	goto	u41_20
  4027  0175                     u41_21:
  4028  0175  297B               	goto	i1l1238
  4029  0176                     u41_20:
  4030  0176                     i1l1230:
  4031                           
  4032                           ;rc5_decoder.c: 140:     one_type_pulse();
  4033  0176  3182  224A  3181   	fcall	_one_type_pulse
  4034  0179                     i1l1232:
  4035                           
  4036                           ;rc5_decoder.c: 141:     return 0;
  4037  0179  3000               	movlw	0
  4038  017A  299C               	goto	i1l269
  4039  017B                     i1l1238:
  4040  017B  0875               	movf	get_pulse_length@min,w
  4041  017C  0223               	subwf	_Decoder+3,w	;volatile
  4042  017D  1C03               	skipc
  4043  017E  2980               	goto	u42_21
  4044  017F  2981               	goto	u42_20
  4045  0180                     u42_21:
  4046  0180  298B               	goto	i1l1250
  4047  0181                     u42_20:
  4048  0181                     i1l1240:
  4049  0181  0823               	movf	_Decoder+3,w	;volatile
  4050  0182  0274               	subwf	get_pulse_length@max,w
  4051  0183  1C03               	skipc
  4052  0184  2986               	goto	u43_21
  4053  0185  2987               	goto	u43_20
  4054  0186                     u43_21:
  4055  0186  298B               	goto	i1l1250
  4056  0187                     u43_20:
  4057  0187                     i1l1242:
  4058                           
  4059                           ;rc5_decoder.c: 144:     two_type_pulse();
  4060  0187  3181  21E1  3181   	fcall	_two_type_pulse
  4061  018A  2979               	goto	i1l1232
  4062  018B                     i1l1250:
  4063  018B  0875               	movf	get_pulse_length@min,w
  4064  018C  0224               	subwf	_Decoder+4,w	;volatile
  4065  018D  1C03               	skipc
  4066  018E  2990               	goto	u44_21
  4067  018F  2991               	goto	u44_20
  4068  0190                     u44_21:
  4069  0190  299B               	goto	i1l1262
  4070  0191                     u44_20:
  4071  0191                     i1l1252:
  4072  0191  0824               	movf	_Decoder+4,w	;volatile
  4073  0192  0274               	subwf	get_pulse_length@max,w
  4074  0193  1C03               	skipc
  4075  0194  2996               	goto	u45_21
  4076  0195  2997               	goto	u45_20
  4077  0196                     u45_21:
  4078  0196  299B               	goto	i1l1262
  4079  0197                     u45_20:
  4080  0197                     i1l1254:
  4081                           
  4082                           ;rc5_decoder.c: 148:     three_type_pulse();
  4083  0197  3182  2268  3181   	fcall	_three_type_pulse
  4084  019A  2979               	goto	i1l1232
  4085  019B                     i1l1262:
  4086                           
  4087                           ;rc5_decoder.c: 152:     return 1;
  4088  019B  3001               	movlw	1
  4089  019C                     i1l269:
  4090  019C  0008               	return
  4091  019D                     __end_of_get_pulse_length:
  4092                           
  4093                           	psect	text15
  4094  01E1                     __ptext15:	
  4095 ;; *************** function _two_type_pulse *****************
  4096 ;; Defined at:
  4097 ;;		line 170 in file "rc5_decoder.c"
  4098 ;; Parameters:    Size  Location     Type
  4099 ;;		None
  4100 ;; Auto vars:     Size  Location     Type
  4101 ;;		None
  4102 ;; Return value:  Size  Location     Type
  4103 ;;                  1    wreg      void 
  4104 ;; Registers used:
  4105 ;;		wreg, status,2, status,0, pclath, cstack
  4106 ;; Tracked objects:
  4107 ;;		On entry : 0/0
  4108 ;;		On exit  : 0/0
  4109 ;;		Unchanged: 0/0
  4110 ;; Data sizes:     COMMON   BANK0   BANK1   BANK2   BANK3   BANK4   BANK5   BANK6
  4111 ;;      Params:         0       0       0       0       0       0       0       0
  4112 ;;      Locals:         0       0       0       0       0       0       0       0
  4113 ;;      Temps:          1       0       0       0       0       0       0       0
  4114 ;;      Totals:         1       0       0       0       0       0       0       0
  4115 ;;Total ram usage:        1 bytes
  4116 ;; Hardware stack levels used: 1
  4117 ;; Hardware stack levels required when called: 1
  4118 ;; This function calls:
  4119 ;;		_save_data
  4120 ;; This function is called by:
  4121 ;;		_get_pulse_length
  4122 ;; This function uses a non-reentrant model
  4123 ;;
  4124                           
  4125  01E1                     _two_type_pulse:	
  4126                           ;psect for function _two_type_pulse
  4127                           
  4128  01E1                     i1l1204:	
  4129                           ;incstack = 0
  4130                           ; Regs used in _two_type_pulse: [wreg+status,2+status,0+pclath+cstack]
  4131                           
  4132                           
  4133                           ;rc5_decoder.c: 172:   if(Decoder.last_bit == 1){
  4134  01E1  0140               	movlb	0	; select bank0
  4135  01E2  0326               	decf	_Decoder+6,w	;volatile
  4136  01E3  1D03               	btfss	3,2
  4137  01E4  29E6               	goto	u39_21
  4138  01E5  29E7               	goto	u39_20
  4139  01E6                     u39_21:
  4140  01E6  29EE               	goto	i1l1210
  4141  01E7                     u39_20:
  4142  01E7                     i1l1206:
  4143                           
  4144                           ;rc5_decoder.c: 173:     save_data(0);
  4145  01E7  3000               	movlw	0
  4146  01E8  3181  21FC  3181   	fcall	_save_data
  4147  01EB                     i1l1208:
  4148                           
  4149                           ;rc5_decoder.c: 174:     Decoder.last_bit = 0;
  4150  01EB  0140               	movlb	0	; select bank0
  4151  01EC  01A6               	clrf	_Decoder+6	;volatile
  4152                           
  4153                           ;rc5_decoder.c: 175:     }
  4154  01ED  29FB               	goto	i1l284
  4155  01EE                     i1l1210:
  4156                           
  4157                           ;rc5_decoder.c: 177:     save_data(0);
  4158  01EE  3000               	movlw	0
  4159  01EF  3181  21FC  3181   	fcall	_save_data
  4160                           
  4161                           ;rc5_decoder.c: 178:     save_data(1);
  4162  01F2  3001               	movlw	1
  4163  01F3  3181  21FC  3181   	fcall	_save_data
  4164  01F6                     i1l1212:
  4165                           
  4166                           ;rc5_decoder.c: 179:     Decoder.last_bit = 1;
  4167  01F6  3001               	movlw	1
  4168  01F7  00F2               	movwf	??_two_type_pulse
  4169  01F8  0872               	movf	??_two_type_pulse,w
  4170  01F9  0140               	movlb	0	; select bank0
  4171  01FA  00A6               	movwf	_Decoder+6	;volatile
  4172  01FB                     i1l284:
  4173  01FB  0008               	return
  4174  01FC                     __end_of_two_type_pulse:
  4175                           
  4176                           	psect	text16
  4177  0268                     __ptext16:	
  4178 ;; *************** function _three_type_pulse *****************
  4179 ;; Defined at:
  4180 ;;		line 185 in file "rc5_decoder.c"
  4181 ;; Parameters:    Size  Location     Type
  4182 ;;		None
  4183 ;; Auto vars:     Size  Location     Type
  4184 ;;		None
  4185 ;; Return value:  Size  Location     Type
  4186 ;;                  1    wreg      void 
  4187 ;; Registers used:
  4188 ;;		wreg, status,2, status,0, pclath, cstack
  4189 ;; Tracked objects:
  4190 ;;		On entry : 0/0
  4191 ;;		On exit  : 0/0
  4192 ;;		Unchanged: 0/0
  4193 ;; Data sizes:     COMMON   BANK0   BANK1   BANK2   BANK3   BANK4   BANK5   BANK6
  4194 ;;      Params:         0       0       0       0       0       0       0       0
  4195 ;;      Locals:         0       0       0       0       0       0       0       0
  4196 ;;      Temps:          1       0       0       0       0       0       0       0
  4197 ;;      Totals:         1       0       0       0       0       0       0       0
  4198 ;;Total ram usage:        1 bytes
  4199 ;; Hardware stack levels used: 1
  4200 ;; Hardware stack levels required when called: 1
  4201 ;; This function calls:
  4202 ;;		_save_data
  4203 ;; This function is called by:
  4204 ;;		_get_pulse_length
  4205 ;; This function uses a non-reentrant model
  4206 ;;
  4207                           
  4208  0268                     _three_type_pulse:	
  4209                           ;psect for function _three_type_pulse
  4210                           
  4211  0268                     i1l1214:	
  4212                           ;incstack = 0
  4213                           ; Regs used in _three_type_pulse: [wreg+status,2+status,0+pclath+cstack]
  4214                           
  4215                           
  4216                           ;rc5_decoder.c: 187:   save_data(0);
  4217  0268  3000               	movlw	0
  4218  0269  3181  21FC  3182   	fcall	_save_data
  4219                           
  4220                           ;rc5_decoder.c: 188:   save_data(1);
  4221  026C  3001               	movlw	1
  4222  026D  3181  21FC  3182   	fcall	_save_data
  4223  0270                     i1l1216:
  4224                           
  4225                           ;rc5_decoder.c: 189:   Decoder.last_bit = 1;
  4226  0270  3001               	movlw	1
  4227  0271  00F2               	movwf	??_three_type_pulse
  4228  0272  0872               	movf	??_three_type_pulse,w
  4229  0273  0140               	movlb	0	; select bank0
  4230  0274  00A6               	movwf	_Decoder+6	;volatile
  4231  0275                     i1l287:
  4232  0275  0008               	return
  4233  0276                     __end_of_three_type_pulse:
  4234                           
  4235                           	psect	text17
  4236  024A                     __ptext17:	
  4237 ;; *************** function _one_type_pulse *****************
  4238 ;; Defined at:
  4239 ;;		line 158 in file "rc5_decoder.c"
  4240 ;; Parameters:    Size  Location     Type
  4241 ;;		None
  4242 ;; Auto vars:     Size  Location     Type
  4243 ;;		None
  4244 ;; Return value:  Size  Location     Type
  4245 ;;                  1    wreg      void 
  4246 ;; Registers used:
  4247 ;;		wreg, status,2, status,0, pclath, cstack
  4248 ;; Tracked objects:
  4249 ;;		On entry : 0/0
  4250 ;;		On exit  : 0/0
  4251 ;;		Unchanged: 0/0
  4252 ;; Data sizes:     COMMON   BANK0   BANK1   BANK2   BANK3   BANK4   BANK5   BANK6
  4253 ;;      Params:         0       0       0       0       0       0       0       0
  4254 ;;      Locals:         0       0       0       0       0       0       0       0
  4255 ;;      Temps:          0       0       0       0       0       0       0       0
  4256 ;;      Totals:         0       0       0       0       0       0       0       0
  4257 ;;Total ram usage:        0 bytes
  4258 ;; Hardware stack levels used: 1
  4259 ;; Hardware stack levels required when called: 1
  4260 ;; This function calls:
  4261 ;;		_save_data
  4262 ;; This function is called by:
  4263 ;;		_get_pulse_length
  4264 ;; This function uses a non-reentrant model
  4265 ;;
  4266                           
  4267  024A                     _one_type_pulse:	
  4268                           ;psect for function _one_type_pulse
  4269                           
  4270  024A                     i1l1198:	
  4271                           ;incstack = 0
  4272                           ; Regs used in _one_type_pulse: [wreg+status,2+status,0+pclath+cstack]
  4273                           
  4274                           
  4275                           ;rc5_decoder.c: 160:   if(Decoder.last_bit == 1){
  4276  024A  0140               	movlb	0	; select bank0
  4277  024B  0326               	decf	_Decoder+6,w	;volatile
  4278  024C  1D03               	btfss	3,2
  4279  024D  2A4F               	goto	u38_21
  4280  024E  2A50               	goto	u38_20
  4281  024F                     u38_21:
  4282  024F  2A55               	goto	i1l1202
  4283  0250                     u38_20:
  4284  0250                     i1l1200:
  4285                           
  4286                           ;rc5_decoder.c: 161:     save_data(1);
  4287  0250  3001               	movlw	1
  4288  0251  3181  21FC  3182   	fcall	_save_data
  4289                           
  4290                           ;rc5_decoder.c: 162:     }
  4291  0254  2A59               	goto	i1l279
  4292  0255                     i1l1202:
  4293                           
  4294                           ;rc5_decoder.c: 164:     save_data(0);
  4295  0255  3000               	movlw	0
  4296  0256  3181  21FC  3182   	fcall	_save_data
  4297  0259                     i1l279:
  4298  0259  0008               	return
  4299  025A                     __end_of_one_type_pulse:
  4300                           
  4301                           	psect	text18
  4302  01FC                     __ptext18:	
  4303 ;; *************** function _save_data *****************
  4304 ;; Defined at:
  4305 ;;		line 194 in file "rc5_decoder.c"
  4306 ;; Parameters:    Size  Location     Type
  4307 ;;  data            1    wreg     unsigned char 
  4308 ;; Auto vars:     Size  Location     Type
  4309 ;;  data            1    1[COMMON] unsigned char 
  4310 ;; Return value:  Size  Location     Type
  4311 ;;                  1    wreg      void 
  4312 ;; Registers used:
  4313 ;;		wreg, status,2, status,0
  4314 ;; Tracked objects:
  4315 ;;		On entry : 0/0
  4316 ;;		On exit  : 0/0
  4317 ;;		Unchanged: 0/0
  4318 ;; Data sizes:     COMMON   BANK0   BANK1   BANK2   BANK3   BANK4   BANK5   BANK6
  4319 ;;      Params:         0       0       0       0       0       0       0       0
  4320 ;;      Locals:         1       0       0       0       0       0       0       0
  4321 ;;      Temps:          1       0       0       0       0       0       0       0
  4322 ;;      Totals:         2       0       0       0       0       0       0       0
  4323 ;;Total ram usage:        2 bytes
  4324 ;; Hardware stack levels used: 1
  4325 ;; This function calls:
  4326 ;;		Nothing
  4327 ;; This function is called by:
  4328 ;;		_INT_ISR
  4329 ;;		_one_type_pulse
  4330 ;;		_two_type_pulse
  4331 ;;		_three_type_pulse
  4332 ;; This function uses a non-reentrant model
  4333 ;;
  4334                           
  4335  01FC                     _save_data:	
  4336                           ;psect for function _save_data
  4337                           
  4338                           
  4339                           ;incstack = 0
  4340                           ; Regs used in _save_data: [wreg+status,2+status,0]
  4341                           ;save_data@data stored from wreg
  4342  01FC  00F1               	movwf	save_data@data
  4343  01FD                     i1l1184:
  4344                           
  4345                           ;rc5_decoder.c: 194:  void save_data(unsigned char data);rc5_decoder.c: 195:   {;rc5_dec
      +                          oder.c: 196:   Decoder.rc_data <<= 1;
  4346  01FD  3001               	movlw	1
  4347  01FE  0140               	movlb	0	; select bank0
  4348  01FF                     u36_25:
  4349  01FF  35A8               	lslf	_Decoder+8,f	;volatile
  4350  0200  0DA9               	rlf	_Decoder+9,f	;volatile
  4351  0201  0B89               	decfsz	9,f
  4352  0202  29FF               	goto	u36_25
  4353  0203                     i1l1186:
  4354                           
  4355                           ;rc5_decoder.c: 198:   if(data == 1){
  4356  0203  0371               	decf	save_data@data,w
  4357  0204  1D03               	btfss	3,2
  4358  0205  2A07               	goto	u37_21
  4359  0206  2A08               	goto	u37_20
  4360  0207                     u37_21:
  4361  0207  2A0A               	goto	i1l1190
  4362  0208                     u37_20:
  4363  0208                     i1l1188:
  4364                           
  4365                           ;rc5_decoder.c: 199:     Decoder.rc_data |= 1;
  4366  0208  1428               	bsf	_Decoder+8,0	;volatile
  4367                           
  4368                           ;rc5_decoder.c: 200:     }
  4369  0209  2A0E               	goto	i1l1192
  4370  020A                     i1l1190:
  4371                           
  4372                           ;rc5_decoder.c: 202:     Decoder.rc_data &= 0xffe;
  4373  020A  30FE               	movlw	254
  4374  020B  05A8               	andwf	_Decoder+8,f	;volatile
  4375  020C  300F               	movlw	15
  4376  020D  05A9               	andwf	_Decoder+9,f	;volatile
  4377  020E                     i1l1192:
  4378                           
  4379                           ;rc5_decoder.c: 205:   Decoder.bit_counter++;
  4380  020E  3001               	movlw	1
  4381  020F  00F0               	movwf	??_save_data
  4382  0210  0870               	movf	??_save_data,w
  4383  0211  07A7               	addwf	_Decoder+7,f	;volatile
  4384  0212                     i1l292:
  4385  0212  0008               	return
  4386  0213                     __end_of_save_data:
  4387                           
  4388                           	psect	text19
  4389  00F8                     __ptext19:	
  4390 ;; *************** function ___awdiv *****************
  4391 ;; Defined at:
  4392 ;;		line 5 in file "/opt/microchip/xc8/v2.35/pic/sources/c99/common/awdiv.c"
  4393 ;; Parameters:    Size  Location     Type
  4394 ;;  divisor         2    0[COMMON] int 
  4395 ;;  dividend        2    2[COMMON] int 
  4396 ;; Auto vars:     Size  Location     Type
  4397 ;;  quotient        2    7[COMMON] int 
  4398 ;;  sign            1    6[COMMON] unsigned char 
  4399 ;;  counter         1    5[COMMON] unsigned char 
  4400 ;; Return value:  Size  Location     Type
  4401 ;;                  2    0[COMMON] int 
  4402 ;; Registers used:
  4403 ;;		wreg, status,2, status,0
  4404 ;; Tracked objects:
  4405 ;;		On entry : 0/0
  4406 ;;		On exit  : 0/0
  4407 ;;		Unchanged: 0/0
  4408 ;; Data sizes:     COMMON   BANK0   BANK1   BANK2   BANK3   BANK4   BANK5   BANK6
  4409 ;;      Params:         4       0       0       0       0       0       0       0
  4410 ;;      Locals:         4       0       0       0       0       0       0       0
  4411 ;;      Temps:          1       0       0       0       0       0       0       0
  4412 ;;      Totals:         9       0       0       0       0       0       0       0
  4413 ;;Total ram usage:        9 bytes
  4414 ;; Hardware stack levels used: 1
  4415 ;; This function calls:
  4416 ;;		Nothing
  4417 ;; This function is called by:
  4418 ;;		_INT_ISR
  4419 ;; This function uses a non-reentrant model
  4420 ;;
  4421                           
  4422  00F8                     ___awdiv:	
  4423                           ;psect for function ___awdiv
  4424                           
  4425  00F8                     i1l1350:	
  4426                           ;incstack = 0
  4427                           ; Regs used in ___awdiv: [wreg+status,2+status,0]
  4428                           
  4429  00F8  01F6               	clrf	___awdiv@sign
  4430  00F9                     i1l1352:
  4431  00F9  1FF1               	btfss	___awdiv@divisor+1,7
  4432  00FA  28FC               	goto	u47_21
  4433  00FB  28FD               	goto	u47_20
  4434  00FC                     u47_21:
  4435  00FC  2904               	goto	i1l1358
  4436  00FD                     u47_20:
  4437  00FD                     i1l1354:
  4438  00FD  09F0               	comf	___awdiv@divisor,f
  4439  00FE  09F1               	comf	___awdiv@divisor+1,f
  4440  00FF  0AF0               	incf	___awdiv@divisor,f
  4441  0100  1903               	skipnz
  4442  0101  0AF1               	incf	___awdiv@divisor+1,f
  4443  0102                     i1l1356:
  4444  0102  01F6               	clrf	___awdiv@sign
  4445  0103  0AF6               	incf	___awdiv@sign,f
  4446  0104                     i1l1358:
  4447  0104  1FF3               	btfss	___awdiv@dividend+1,7
  4448  0105  2907               	goto	u48_21
  4449  0106  2908               	goto	u48_20
  4450  0107                     u48_21:
  4451  0107  2911               	goto	i1l1364
  4452  0108                     u48_20:
  4453  0108                     i1l1360:
  4454  0108  09F2               	comf	___awdiv@dividend,f
  4455  0109  09F3               	comf	___awdiv@dividend+1,f
  4456  010A  0AF2               	incf	___awdiv@dividend,f
  4457  010B  1903               	skipnz
  4458  010C  0AF3               	incf	___awdiv@dividend+1,f
  4459  010D                     i1l1362:
  4460  010D  3001               	movlw	1
  4461  010E  00F4               	movwf	??___awdiv
  4462  010F  0874               	movf	??___awdiv,w
  4463  0110  06F6               	xorwf	___awdiv@sign,f
  4464  0111                     i1l1364:
  4465  0111  01F7               	clrf	___awdiv@quotient
  4466  0112  01F8               	clrf	___awdiv@quotient+1
  4467  0113                     i1l1366:
  4468  0113  0870               	movf	___awdiv@divisor,w
  4469  0114  0471               	iorwf	___awdiv@divisor+1,w
  4470  0115  1903               	btfsc	3,2
  4471  0116  2918               	goto	u49_21
  4472  0117  2919               	goto	u49_20
  4473  0118                     u49_21:
  4474  0118  2948               	goto	i1l1386
  4475  0119                     u49_20:
  4476  0119                     i1l1368:
  4477  0119  01F5               	clrf	___awdiv@counter
  4478  011A  0AF5               	incf	___awdiv@counter,f
  4479  011B  2925               	goto	i1l1374
  4480  011C                     i1l1370:
  4481  011C  3001               	movlw	1
  4482  011D                     u50_25:
  4483  011D  35F0               	lslf	___awdiv@divisor,f
  4484  011E  0DF1               	rlf	___awdiv@divisor+1,f
  4485  011F  0B89               	decfsz	9,f
  4486  0120  291D               	goto	u50_25
  4487  0121                     i1l1372:
  4488  0121  3001               	movlw	1
  4489  0122  00F4               	movwf	??___awdiv
  4490  0123  0874               	movf	??___awdiv,w
  4491  0124  07F5               	addwf	___awdiv@counter,f
  4492  0125                     i1l1374:
  4493  0125  1FF1               	btfss	___awdiv@divisor+1,7
  4494  0126  2928               	goto	u51_21
  4495  0127  2929               	goto	u51_20
  4496  0128                     u51_21:
  4497  0128  291C               	goto	i1l1370
  4498  0129                     u51_20:
  4499  0129                     i1l1376:
  4500  0129  3001               	movlw	1
  4501  012A                     u52_25:
  4502  012A  35F7               	lslf	___awdiv@quotient,f
  4503  012B  0DF8               	rlf	___awdiv@quotient+1,f
  4504  012C  0B89               	decfsz	9,f
  4505  012D  292A               	goto	u52_25
  4506  012E  0871               	movf	___awdiv@divisor+1,w
  4507  012F  0273               	subwf	___awdiv@dividend+1,w
  4508  0130  1D03               	skipz
  4509  0131  2934               	goto	u53_25
  4510  0132  0870               	movf	___awdiv@divisor,w
  4511  0133  0272               	subwf	___awdiv@dividend,w
  4512  0134                     u53_25:
  4513  0134  1C03               	skipc
  4514  0135  2937               	goto	u53_21
  4515  0136  2938               	goto	u53_20
  4516  0137                     u53_21:
  4517  0137  293D               	goto	i1l1382
  4518  0138                     u53_20:
  4519  0138                     i1l1378:
  4520  0138  0870               	movf	___awdiv@divisor,w
  4521  0139  02F2               	subwf	___awdiv@dividend,f
  4522  013A  0871               	movf	___awdiv@divisor+1,w
  4523  013B  3BF3               	subwfb	___awdiv@dividend+1,f
  4524  013C                     i1l1380:
  4525  013C  1477               	bsf	___awdiv@quotient,0
  4526  013D                     i1l1382:
  4527  013D  3001               	movlw	1
  4528  013E                     u54_25:
  4529  013E  36F1               	lsrf	___awdiv@divisor+1,f
  4530  013F  0CF0               	rrf	___awdiv@divisor,f
  4531  0140  0B89               	decfsz	9,f
  4532  0141  293E               	goto	u54_25
  4533  0142                     i1l1384:
  4534  0142  3001               	movlw	1
  4535  0143  02F5               	subwf	___awdiv@counter,f
  4536  0144  1D03               	btfss	3,2
  4537  0145  2947               	goto	u55_21
  4538  0146  2948               	goto	u55_20
  4539  0147                     u55_21:
  4540  0147  2929               	goto	i1l1376
  4541  0148                     u55_20:
  4542  0148                     i1l1386:
  4543  0148  0876               	movf	___awdiv@sign,w
  4544  0149  1903               	btfsc	3,2
  4545  014A  294C               	goto	u56_21
  4546  014B  294D               	goto	u56_20
  4547  014C                     u56_21:
  4548  014C  2952               	goto	i1l1390
  4549  014D                     u56_20:
  4550  014D                     i1l1388:
  4551  014D  09F7               	comf	___awdiv@quotient,f
  4552  014E  09F8               	comf	___awdiv@quotient+1,f
  4553  014F  0AF7               	incf	___awdiv@quotient,f
  4554  0150  1903               	skipnz
  4555  0151  0AF8               	incf	___awdiv@quotient+1,f
  4556  0152                     i1l1390:
  4557  0152  0878               	movf	___awdiv@quotient+1,w
  4558  0153  00F1               	movwf	?___awdiv+1
  4559  0154  0877               	movf	___awdiv@quotient,w
  4560  0155  00F0               	movwf	?___awdiv
  4561  0156                     i1l513:
  4562  0156  0008               	return
  4563  0157                     __end_of___awdiv:
  4564  007E                     btemp	set	126	;btemp
  4565  007E                     int$flags	set	126
  4566  007E                     wtemp0	set	126
  4567                           
  4568                           	psect	idloc
  4569                           
  4570                           ;Config register IDLOC0 @ 0x8000
  4571                           ;	unspecified, using default values
  4572  8000                     	org	32768
  4573  8000  3FFF               	dw	16383
  4574                           
  4575                           ;Config register IDLOC1 @ 0x8001
  4576                           ;	unspecified, using default values
  4577  8001                     	org	32769
  4578  8001  3FFF               	dw	16383
  4579                           
  4580                           ;Config register IDLOC2 @ 0x8002
  4581                           ;	unspecified, using default values
  4582  8002                     	org	32770
  4583  8002  3FFF               	dw	16383
  4584                           
  4585                           ;Config register IDLOC3 @ 0x8003
  4586                           ;	unspecified, using default values
  4587  8003                     	org	32771
  4588  8003  3FFF               	dw	16383
  4589                           
  4590                           	psect	config
  4591                           
  4592                           ;Config register CONFIG1 @ 0x8007
  4593                           ;	External Oscillator mode selection bits
  4594                           ;	FEXTOSC = OFF, Oscillator not enabled
  4595                           ;	Power-up default value for COSC bits
  4596                           ;	RSTOSC = HFINT1, HFINTOSC (1MHz)
  4597                           ;	Clock Out Enable bit
  4598                           ;	CLKOUTEN = OFF, CLKOUT function is disabled; i/o or oscillator function on OSC2
  4599                           ;	Clock Switch Enable bit
  4600                           ;	CSWEN = ON, Writing to NOSC and NDIV is allowed
  4601                           ;	Fail-Safe Clock Monitor Enable bit
  4602                           ;	FCMEN = ON, FSCM timer enabled
  4603  8007                     	org	32775
  4604  8007  3FEC               	dw	16364
  4605                           
  4606                           ;Config register CONFIG2 @ 0x8008
  4607                           ;	Master Clear Enable bit
  4608                           ;	MCLRE = ON, MCLR pin is Master Clear function
  4609                           ;	Power-up Timer Enable bit
  4610                           ;	PWRTE = OFF, PWRT disabled
  4611                           ;	Low-Power BOR enable bit
  4612                           ;	LPBOREN = OFF, ULPBOR disabled
  4613                           ;	Brown-out reset enable bits
  4614                           ;	BOREN = ON, Brown-out Reset Enabled, SBOREN bit is ignored
  4615                           ;	Brown-out Reset Voltage Selection
  4616                           ;	BORV = LO, Brown-out Reset Voltage (VBOR) set to 1.9V on LF, and 2.45V on F Devices
  4617                           ;	Zero-cross detect disable
  4618                           ;	ZCD = OFF, Zero-cross detect circuit is disabled at POR.
  4619                           ;	Peripheral Pin Select one-way control
  4620                           ;	PPS1WAY = ON, The PPSLOCK bit can be cleared and set only once in software
  4621                           ;	Stack Overflow/Underflow Reset Enable bit
  4622                           ;	STVREN = ON, Stack Overflow or Underflow will cause a reset
  4623  8008                     	org	32776
  4624  8008  3FFF               	dw	16383
  4625                           
  4626                           ;Config register CONFIG3 @ 0x8009
  4627                           ;	WDT Period Select bits
  4628                           ;	WDTCPS = WDTCPS_31, Divider ratio 1:65536; software control of WDTPS
  4629                           ;	WDT operating mode
  4630                           ;	WDTE = OFF, WDT Disabled, SWDTEN is ignored
  4631                           ;	WDT Window Select bits
  4632                           ;	WDTCWS = WDTCWS_7, window always open (100%); software control; keyed access not requi
      +                          red
  4633                           ;	WDT input clock selector
  4634                           ;	WDTCCS = SC, Software Control
  4635  8009                     	org	32777
  4636  8009  3F9F               	dw	16287
  4637                           
  4638                           ;Config register CONFIG4 @ 0x800A
  4639                           ;	Boot Block Size Selection bits
  4640                           ;	BBSIZE = BB512, 512 words boot block size
  4641                           ;	Boot Block Enable bit
  4642                           ;	BBEN = OFF, Boot Block disabled
  4643                           ;	SAF Enable bit
  4644                           ;	SAFEN = OFF, SAF disabled
  4645                           ;	Application Block Write Protection bit
  4646                           ;	WRTAPP = OFF, Application Block not write protected
  4647                           ;	Boot Block Write Protection bit
  4648                           ;	WRTB = OFF, Boot Block not write protected
  4649                           ;	Configuration Register Write Protection bit
  4650                           ;	WRTC = OFF, Configuration Register not write protected
  4651                           ;	Storage Area Flash Write Protection bit
  4652                           ;	WRTSAF = OFF, SAF not write protected
  4653                           ;	Low Voltage Programming Enable bit
  4654                           ;	LVP = ON, Low Voltage programming enabled. MCLR/Vpp pin function is MCLR.
  4655  800A                     	org	32778
  4656  800A  3FFF               	dw	16383
  4657                           
  4658                           ;Config register CONFIG5 @ 0x800B
  4659                           ;	UserNVM Program memory code protection bit
  4660                           ;	CP = OFF, UserNVM code protection disabled
  4661  800B                     	org	32779
  4662  800B  3FFF               	dw	16383

Data Sizes:
    Strings     0
    Constant    0
    Data        0
    BSS         14
    Persistent  38
    Stack       0

Auto Spaces:
    Space          Size  Autos    Used
    COMMON           14     12      14
    BANK0            80      2      20
    BANK1            80      0       0
    BANK2            80      0       0
    BANK3            80      0       0
    BANK4            80      0       0
    BANK5            80      0       0
    BANK6            16      0       0

Pointer List with Targets:

    TMR1_SetInterruptHandler@InterruptHandler	PTR FTN()void  size(2) Largest target is 1
		 -> TMR1_DefaultInterruptHandler(), 

    TMR1_InterruptHandler	PTR FTN()void  size(2) Largest target is 1
		 -> TMR1_DefaultInterruptHandler(), Absolute function(), 

    INT_SetInterruptHandler@InterruptHandler	PTR FTN()void  size(2) Largest target is 1
		 -> INT_DefaultInterruptHandler(), 

    INT_InterruptHandler	PTR FTN()void  size(2) Largest target is 1
		 -> INT_DefaultInterruptHandler(), Absolute function(), 


Critical Paths under _main in COMMON

    None.

Critical Paths under _INTERRUPT_InterruptManager in COMMON

    _INTERRUPT_InterruptManager->_INT_ISR
    _TMR1_ISR->_TMR1_WriteTimer
    _INT_ISR->___awdiv
    _get_pulse_length->_three_type_pulse
    _get_pulse_length->_two_type_pulse
    _two_type_pulse->_save_data
    _three_type_pulse->_save_data
    _one_type_pulse->_save_data

Critical Paths under _main in BANK0

    _TMR1_Initialize->_TMR1_SetInterruptHandler
    _EXT_INT_Initialize->_INT_SetInterruptHandler

Critical Paths under _INTERRUPT_InterruptManager in BANK0

    None.

Critical Paths under _main in BANK1

    None.

Critical Paths under _INTERRUPT_InterruptManager in BANK1

    None.

Critical Paths under _main in BANK2

    None.

Critical Paths under _INTERRUPT_InterruptManager in BANK2

    None.

Critical Paths under _main in BANK3

    None.

Critical Paths under _INTERRUPT_InterruptManager in BANK3

    None.

Critical Paths under _main in BANK4

    None.

Critical Paths under _INTERRUPT_InterruptManager in BANK4

    None.

Critical Paths under _main in BANK5

    None.

Critical Paths under _INTERRUPT_InterruptManager in BANK5

    None.

Critical Paths under _main in BANK6

    None.

Critical Paths under _INTERRUPT_InterruptManager in BANK6

    None.

Call Graph Tables:

 ---------------------------------------------------------------------------------
 (Depth) Function   	        Calls       Base Space   Used Autos Params    Refs
 ---------------------------------------------------------------------------------
 (0) _main                                                 0     0      0     196
                  _SYSTEM_Initialize
 ---------------------------------------------------------------------------------
 (1) _SYSTEM_Initialize                                    0     0      0     196
                 _EXT_INT_Initialize
              _OSCILLATOR_Initialize
             _PIN_MANAGER_Initialize
                     _PMD_Initialize
                    _TMR1_Initialize
 ---------------------------------------------------------------------------------
 (2) _TMR1_Initialize                                      0     0      0      98
           _TMR1_SetInterruptHandler
 ---------------------------------------------------------------------------------
 (3) _TMR1_SetInterruptHandler                             2     0      2      98
                                              0 BANK0      2     0      2
 ---------------------------------------------------------------------------------
 (2) _PMD_Initialize                                       0     0      0       0
 ---------------------------------------------------------------------------------
 (2) _PIN_MANAGER_Initialize                               0     0      0       0
 ---------------------------------------------------------------------------------
 (2) _OSCILLATOR_Initialize                                0     0      0       0
 ---------------------------------------------------------------------------------
 (2) _EXT_INT_Initialize                                   0     0      0      98
            _INT_SetInterruptHandler
 ---------------------------------------------------------------------------------
 (3) _INT_SetInterruptHandler                              2     0      2      98
                                              0 BANK0      2     0      2
 ---------------------------------------------------------------------------------
 Estimated maximum stack depth 3
 ---------------------------------------------------------------------------------
 (Depth) Function   	        Calls       Base Space   Used Autos Params    Refs
 ---------------------------------------------------------------------------------
 (4) _INTERRUPT_InterruptManager                           0     0      0    1066
                            _INT_ISR
                           _TMR1_ISR
 ---------------------------------------------------------------------------------
 (5) _TMR1_ISR                                             0     0      0     240
                   Absolute function *
       _TMR1_DefaultInterruptHandler *
                    _TMR1_WriteTimer
 ---------------------------------------------------------------------------------
 (6) _TMR1_WriteTimer                                      2     0      2     240
                                              0 COMMON     2     0      2
 ---------------------------------------------------------------------------------
 (6) _TMR1_DefaultInterruptHandler                         0     0      0       0
 ---------------------------------------------------------------------------------
 (6) Absolute function(Fake)                               0     0      0       0
 ---------------------------------------------------------------------------------
 (5) _INT_ISR                                              3     3      0     826
                                              9 COMMON     3     3      0
                            ___awdiv
                   _get_pulse_length
                          _save_data
 ---------------------------------------------------------------------------------
 (6) _get_pulse_length                                     3     3      0     200
                                              3 COMMON     3     3      0
                     _one_type_pulse
                   _three_type_pulse
                     _two_type_pulse
 ---------------------------------------------------------------------------------
 (7) _two_type_pulse                                       1     1      0      22
                                              2 COMMON     1     1      0
                          _save_data
 ---------------------------------------------------------------------------------
 (7) _three_type_pulse                                     1     1      0      22
                                              2 COMMON     1     1      0
                          _save_data
 ---------------------------------------------------------------------------------
 (7) _one_type_pulse                                       0     0      0      22
                          _save_data
 ---------------------------------------------------------------------------------
 (6) _save_data                                            2     2      0      22
                                              0 COMMON     2     2      0
 ---------------------------------------------------------------------------------
 (6) ___awdiv                                              9     5      4     604
                                              0 COMMON     9     5      4
 ---------------------------------------------------------------------------------
 Estimated maximum stack depth 7
 ---------------------------------------------------------------------------------

 Call Graph Graphs:

 _main (ROOT)
   _SYSTEM_Initialize
     _EXT_INT_Initialize
       _INT_SetInterruptHandler
     _OSCILLATOR_Initialize
     _PIN_MANAGER_Initialize
     _PMD_Initialize
     _TMR1_Initialize
       _TMR1_SetInterruptHandler

 _INTERRUPT_InterruptManager (ROOT)
   _INT_ISR
     ___awdiv
     _get_pulse_length
       _one_type_pulse
         _save_data
       _three_type_pulse
         _save_data
       _two_type_pulse
         _save_data
     _save_data
   _TMR1_ISR
     Absolute function(Fake) *
     _TMR1_DefaultInterruptHandler *
     _TMR1_WriteTimer *

 Address spaces:
Name               Size   Autos  Total    Cost      Usage
BIGRAM             1F0      0       0       0        0.0%
NULL                 0      0       0       0        0.0%
CODE                 0      0       0       0        0.0%
BITCOMMON            E      0       0       1        0.0%
BITSFR0              0      0       0       1        0.0%
SFR0                 0      0       0       1        0.0%
COMMON               E      C       E       2      100.0%
BITSFR1              0      0       0       2        0.0%
SFR1                 0      0       0       2        0.0%
BITSFR2              0      0       0       3        0.0%
SFR2                 0      0       0       3        0.0%
STACK                0      0       0       3        0.0%
BITSFR3              0      0       0       4        0.0%
SFR3                 0      0       0       4        0.0%
ABS                  0      0      22       4        0.0%
BITBANK0            50      0       0       5        0.0%
BITSFR4              0      0       0       5        0.0%
SFR4                 0      0       0       5        0.0%
BANK0               50      2      14       6       25.0%
BITSFR5              0      0       0       6        0.0%
SFR5                 0      0       0       6        0.0%
BITBANK1            50      0       0       7        0.0%
BITSFR6              0      0       0       7        0.0%
SFR6                 0      0       0       7        0.0%
BANK1               50      0       0       8        0.0%
BITSFR7              0      0       0       8        0.0%
SFR7                 0      0       0       8        0.0%
BITBANK2            50      0       0       9        0.0%
BITSFR8              0      0       0       9        0.0%
SFR8                 0      0       0       9        0.0%
BANK2               50      0       0      10        0.0%
BITSFR9              0      0       0      10        0.0%
SFR9                 0      0       0      10        0.0%
BITBANK3            50      0       0      11        0.0%
BITSFR10             0      0       0      11        0.0%
SFR10                0      0       0      11        0.0%
BANK3               50      0       0      12        0.0%
BITSFR11             0      0       0      12        0.0%
SFR11                0      0       0      12        0.0%
BITBANK4            50      0       0      13        0.0%
BITSFR12             0      0       0      13        0.0%
SFR12                0      0       0      13        0.0%
BANK4               50      0       0      14        0.0%
BITSFR13             0      0       0      14        0.0%
SFR13                0      0       0      14        0.0%
BITBANK5            50      0       0      15        0.0%
BITSFR14             0      0       0      15        0.0%
SFR14                0      0       0      15        0.0%
BANK5               50      0       0      16        0.0%
BITSFR15             0      0       0      16        0.0%
SFR15                0      0       0      16        0.0%
BITBANK6            10      0       0      17        0.0%
BITSFR16             0      0       0      17        0.0%
SFR16                0      0       0      17        0.0%
BANK6               10      0       0      18        0.0%
BITSFR17             0      0       0      18        0.0%
SFR17                0      0       0      18        0.0%
BITSFR18             0      0       0      19        0.0%
SFR18                0      0       0      19        0.0%
DATA                 0      0      22      19        0.0%
BITSFR19             0      0       0      20        0.0%
SFR19                0      0       0      20        0.0%
BITSFR20             0      0       0      21        0.0%
SFR20                0      0       0      21        0.0%
BITSFR21             0      0       0      22        0.0%
SFR21                0      0       0      22        0.0%
BITSFR22             0      0       0      23        0.0%
SFR22                0      0       0      23        0.0%
BITSFR23             0      0       0      24        0.0%
SFR23                0      0       0      24        0.0%
BITSFR24             0      0       0      25        0.0%
SFR24                0      0       0      25        0.0%
BITSFR25             0      0       0      26        0.0%
SFR25                0      0       0      26        0.0%
BITSFR26             0      0       0      27        0.0%
SFR26                0      0       0      27        0.0%
BITSFR27             0      0       0      28        0.0%
SFR27                0      0       0      28        0.0%
BITSFR28             0      0       0      29        0.0%
SFR28                0      0       0      29        0.0%
BITSFR29             0      0       0      30        0.0%
SFR29                0      0       0      30        0.0%
BITSFR30             0      0       0      31        0.0%
SFR30                0      0       0      31        0.0%
BITSFR31             0      0       0      32        0.0%
SFR31                0      0       0      32        0.0%
BITSFR32             0      0       0      33        0.0%
SFR32                0      0       0      33        0.0%
BITSFR33             0      0       0      34        0.0%
SFR33                0      0       0      34        0.0%
BITSFR34             0      0       0      35        0.0%
SFR34                0      0       0      35        0.0%
BITSFR35             0      0       0      36        0.0%
SFR35                0      0       0      36        0.0%
BITSFR36             0      0       0      37        0.0%
SFR36                0      0       0      37        0.0%
BITSFR37             0      0       0      38        0.0%
SFR37                0      0       0      38        0.0%
BITSFR38             0      0       0      39        0.0%
SFR38                0      0       0      39        0.0%
BITSFR39             0      0       0      40        0.0%
SFR39                0      0       0      40        0.0%
BITSFR40             0      0       0      41        0.0%
SFR40                0      0       0      41        0.0%
BITSFR41             0      0       0      42        0.0%
SFR41                0      0       0      42        0.0%
BITSFR42             0      0       0      43        0.0%
SFR42                0      0       0      43        0.0%
BITSFR43             0      0       0      44        0.0%
SFR43                0      0       0      44        0.0%
BITSFR44             0      0       0      45        0.0%
SFR44                0      0       0      45        0.0%
BITSFR45             0      0       0      46        0.0%
SFR45                0      0       0      46        0.0%
BITSFR46             0      0       0      47        0.0%
SFR46                0      0       0      47        0.0%
BITSFR47             0      0       0      48        0.0%
SFR47                0      0       0      48        0.0%
BITSFR48             0      0       0      49        0.0%
SFR48                0      0       0      49        0.0%
BITSFR49             0      0       0      50        0.0%
SFR49                0      0       0      50        0.0%
BITSFR50             0      0       0      51        0.0%
SFR50                0      0       0      51        0.0%
BITSFR51             0      0       0      52        0.0%
SFR51                0      0       0      52        0.0%
BITSFR52             0      0       0      53        0.0%
SFR52                0      0       0      53        0.0%
BITSFR53             0      0       0      54        0.0%
SFR53                0      0       0      54        0.0%
BITSFR54             0      0       0      55        0.0%
SFR54                0      0       0      55        0.0%
BITSFR55             0      0       0      56        0.0%
SFR55                0      0       0      56        0.0%
BITSFR56             0      0       0      57        0.0%
SFR56                0      0       0      57        0.0%
BITSFR57             0      0       0      58        0.0%
SFR57                0      0       0      58        0.0%
BITSFR58             0      0       0      59        0.0%
SFR58                0      0       0      59        0.0%
BITSFR59             0      0       0      60        0.0%
SFR59                0      0       0      60        0.0%
BITSFR60             0      0       0      61        0.0%
SFR60                0      0       0      61        0.0%
BITSFR61             0      0       0      62        0.0%
SFR61                0      0       0      62        0.0%
BITSFR62             0      0       0      63        0.0%
SFR62                0      0       0      63        0.0%
BITSFR63             0      0       0      64        0.0%
SFR63                0      0       0      64        0.0%


Microchip Technology PIC Macro Assembler V2.35 build 20211206165544 
Symbol Table                                                                                   Wed Apr 20 12:17:32 2022

                                      l71 0267                                        l65 02A1  
                            ___awdiv@sign 0076                                       l111 027F  
                                     l114 028F                                       l108 0249  
                                     l225 01C2                                       l145 01E0  
                                     l241 0285                                       l242 0285  
                                     l175 029B                           _timer1ReloadVal 007C  
                                     wreg 0009                                      l1300 01B7  
                                    l1310 0279                                      l1302 01B8  
                                    l1312 027A                                      l1304 01BA  
                                    l1320 01C6                                      l1314 027D  
                                    l1306 01BC                                      l1330 01D3  
                                    l1322 01C8                                      l1316 027E  
                                    l1308 0276                                      l1332 01D5  
                                    l1324 01CA                                      l1270 0265  
                                    l1334 01DD                                      l1326 01CC  
                                    l1318 01C3                                      l1280 01A5  
                                    l1272 0288                                      l1328 01CE  
                                    l1194 029C                                      l1266 025A  
                                    l1290 01B0                                      l1282 01A7  
                                    l1274 019D                                      l1268 025D  
                                    l1292 01B1                                      l1284 01AA  
                                    l1276 01A1                                      l1196 0296  
                                    l1460 023D                                      l1294 01B2  
                                    l1286 01AC                                      l1278 01A3  
                                    l1462 0240                                      l1296 01B3  
                                    l1288 01AE                                      l1464 0243  
                                    l1298 01B4                                      l1466 0246  
                                    l1458 023A                                      l1490 0284  
                                    l1486 0280                                      l1488 0283  
                __end_of_get_pulse_length 019D                                      _LATA 0018  
                                    _LATB 0019                           __end_of_INT_ISR 00F8  
                                    _LATC 001A                                      _PMD0 0796  
                                    _PMD1 0797                                      _PMD2 0798  
                                    _PMD3 0799                                      i1l24 0023  
                                    _PMD4 079A                                      i1l25 0023  
                                    _PMD5 079B                                      i1l19 0013  
                                    i1l52 0093                                      i1l54 0096  
                                    i1l46 00AF                                      i1l49 00AD  
                                    i1l58 00F7                                      _TMR0 059C  
                                    _WPUA 1F39                                      _WPUB 1F44  
                                    _WPUC 1F4F                                      _main 0280  
                                    fsr0h 0005                                      fsr1h 0007  
                                    indf0 0000                                      fsr0l 0004  
                                    fsr1l 0006                                      btemp 007E  
             _INT_DefaultInterruptHandler 0000                                      start 0025  
         __end_of_INT_SetInterruptHandler 02A2                ??_TMR1_SetInterruptHandler 0034  
           __end_of_OSCILLATOR_Initialize 0280                                     ?_main 0070  
                         __end_of___awdiv 0157                                     _T1CLK 0211  
                         ___awdiv@divisor 0070                                     _T1CON 020E  
                                   i1l172 0228                                     i1l159 0239  
                                   i1l513 0156                                     i1l178 02A2  
                                   i1l292 0212                                     i1l284 01FB  
                                   i1l269 019C                                     i1l279 0259  
                                   i1l287 0275                           ___awdiv@counter 0075  
                                   _OSCEN 0891                                     u40_20 0170  
                                   u40_21 016F                                     u41_20 0176  
                                   u41_21 0175                                     _TMR1H 020D  
                                   _TMR1L 020C                                     u42_20 0181  
                                   u42_21 0180                                     u50_25 011D  
                                   u51_20 0129                                     u43_20 0187  
                                   u51_21 0128                                     u43_21 0186  
                                   u44_20 0191                                     u60_20 00BA  
                                   u44_21 0190                                     u60_21 00B9  
                                   u52_25 012A                                     u36_25 01FF  
                                   u53_20 0138                                     u37_20 0208  
                                   u45_20 0197                                     u61_20 00C5  
                                   u53_21 0137                                     u37_21 0207  
                                   u45_21 0196                                     u61_21 00C4  
                                   u53_25 0134                                     u38_20 0250  
                                   u46_20 022E                                     u38_21 024F  
                                   u46_21 022D                                     u54_25 013E  
                                   u62_25 00CE                                     u55_20 0148  
                                   u47_20 00FD                                     u39_20 01E7  
                                   u55_21 0147                                     u47_21 00FC  
                                   u39_21 01E6                                     u63_25 00E5  
                                   u56_20 014D                                     u48_20 0108  
                                   u64_20 0223                                     u56_21 014C  
                                   u48_21 0107                                     u64_21 0222  
                                   u49_20 0119                                     u57_20 0039  
                                   u65_20 000B                                     u49_21 0118  
                                   u57_21 0038                                     u65_21 000A  
                                   _TRISA 0012                                     _TRISB 0013  
                                   _TRISC 0014                                     u58_20 008D  
                                   u66_20 000F                                     u58_21 008C  
                                   u66_21 000E                                     u59_20 00B3  
                                   u67_20 0017                                     u59_21 00B2  
                                   u67_21 0016                                     u68_20 001B  
                                   u68_21 001A                                     u69_20 001F  
                                   u69_21 001E                          __end_of_TMR1_ISR 0229  
                 __end_of_TMR1_Initialize 01E1                                     pclath 000A  
                                   status 0003                                     wtemp0 007E  
                         _TMR1_WriteTimer 0229                           __initialization 0027  
                            __end_of_main 0288               ?_INTERRUPT_InterruptManager 0070  
                                  ??_main 0034                                 ??_INT_ISR 0079  
                        _three_type_pulse 0268                          ___awdiv@dividend 0072  
                                  _ANSELA 1F38                                    _ANSELB 1F43  
                                  _ANSELC 1F4E                                    _T1GATE 0210  
                                  _T1GCON 020F                                    i1l1200 0250  
                                  i1l1202 0255                                    i1l1210 01EE  
                 TMR1_WriteTimer@timerVal 0070                                    i1l1212 01F6  
                                  i1l1204 01E1                                    i1l1220 015D  
                                  i1l1214 0268                                    i1l1206 01E7  
                                  i1l1230 0176                                    i1l1222 015F  
                                  i1l1216 0270                                    i1l1208 01EB  
                                  i1l1240 0181                                    i1l1232 0179  
                                  i1l1224 0165                                    i1l1400 003C  
                                  i1l1242 0187                                    i1l1250 018B  
                                  i1l1226 016A                                    i1l1218 0157  
                                  i1l1410 0050                                    i1l1402 003E  
                                  i1l1252 0191                                    i1l1228 0170  
                                  i1l1420 0085                                    i1l1412 0065  
                                  i1l1404 0043                                    i1l1340 022F  
                                  i1l1350 00F8                                    i1l1190 020A  
                                  i1l1254 0197                                    i1l1262 019B  
                                  i1l1238 017B                                    i1l1430 00BA  
                                  i1l1422 008D                                    i1l1414 0069  
                                  i1l1406 0048                                    i1l1342 0231  
                                  i1l1360 0108                                    i1l1352 00F9  
                                  i1l1192 020E                                    i1l1184 01FD  
                                  i1l1440 00EE                                    i1l1432 00BE  
                                  i1l1416 007C                                    i1l1408 004E  
                                  i1l1344 0233                                    i1l1336 0229  
                                  _ODCONA 1F3A                                    i1l1370 011C  
                                  i1l1362 010D                                    i1l1354 00FD  
                                  i1l1186 0203                                    i1l1434 00C5  
                                  i1l1442 00F2                                    i1l1522 00A2  
                                  i1l1418 0080                                    i1l1426 0099  
                                  i1l1338 022E                                    i1l1346 0235  
                                  i1l1450 0213                                    _ODCONB 1F45  
                                  _ODCONC 1F50                                    i1l1380 013C  
                                  i1l1372 0121                                    i1l1364 0111  
                                  i1l1356 0102                                    i1l1188 0208  
                                  i1l1444 00F4                                    i1l1436 00D7  
                                  i1l1428 00B3                                    i1l1348 0237  
                                  i1l1452 0215                                    i1l1390 0152  
                                  i1l1382 013D                                    i1l1374 0125  
                                  i1l1366 0113                                    i1l1358 0104  
                                  i1l1198 024A                                    i1l1438 00DC  
                                  i1l1454 021C                                    i1l1470 000B  
                                  i1l1384 0142                                    i1l1376 0129  
                                  i1l1368 0119                                    i1l1456 0223  
                                  i1l1472 000F                                    i1l1378 0138  
                                  i1l1386 0148                                    i1l1394 0033  
                                  i1l1474 0017                                    i1l1388 014D  
                                  i1l1476 001B                                    i1l1468 0006  
                                  i1l1398 003A                                    i1l1478 001F  
                                  _INLVLA 1F3C                                    _INLVLB 1F47  
                                  _INLVLC 1F52                                    _INTPPS 1E90  
                                  _OSCFRQ 0893                            _one_type_pulse 024A  
                        ??_two_type_pulse 0072      __end_of_TMR1_DefaultInterruptHandler 02A3  
            _TMR1_DefaultInterruptHandler 02A2                                 ??___awdiv 0074  
                        ___awdiv@quotient 0077                       get_pulse_length@max 0074  
                     get_pulse_length@min 0075                            _PMD_Initialize 0288  
TMR1_SetInterruptHandler@InterruptHandler 0032   INT_SetInterruptHandler@InterruptHandler 0032  
                 __end_of_TMR1_WriteTimer 023A                    __end_of_one_type_pulse 025A  
                        ?_TMR1_Initialize 0070                         _SYSTEM_Initialize 023A  
                 __end_of__initialization 002F                        ?_SYSTEM_Initialize 0070  
                          __pcstackCOMMON 0070                       ??_SYSTEM_Initialize 0034  
                               ?_TMR1_ISR 0070             ?_TMR1_DefaultInterruptHandler 0070  
                  __end_of_PMD_Initialize 0290                 __end_of_SYSTEM_Initialize 024A  
                         ?_one_type_pulse 0070                                __pbssBANK0 0020  
                       ?_get_pulse_length 0070                        ??_get_pulse_length 0073  
                              __pnvCOMMON 007C                                __pmaintext 0280  
                              ??_TMR1_ISR 0072                                __pintentry 0004  
                         ?_PMD_Initialize 0070                                   _INT_ISR 0033  
                                 _OSCCON1 088D                                   _OSCCON3 088F  
                                 _OSCSTAT 0890                                   _OSCTUNE 0892  
                                 _SLRCONA 1F3B                                   _SLRCONB 1F46  
                                 _SLRCONC 1F51                          ?_TMR1_WriteTimer 0070  
                                 _Decoder 0020                                   ___awdiv 00F8  
                __end_of_three_type_pulse 0276                                   __ptext1 023A  
                                 __ptext2 01C3                                   __ptext3 0296  
                                 __ptext4 0288                                   __ptext5 019D  
                                 __ptext6 0276                                   __ptext7 025A  
                                 __ptext8 029C            ??_TMR1_DefaultInterruptHandler 0070  
                               _T1CONbits 020E                     _OSCILLATOR_Initialize 0276  
                ??_PIN_MANAGER_Initialize 0032                 ?_TMR1_SetInterruptHandler 0032  
                 _INT_SetInterruptHandler 029C                                   clrloop0 0291  
                    end_of_initialization 002F                         __end_of_save_data 0213  
                           save_data@data 0071                    ?_OSCILLATOR_Initialize 0070  
               ??_INT_SetInterruptHandler 0034                          ??_one_type_pulse 0072  
                     start_initialization 0027                          ??_PMD_Initialize 0032  
              __end_of_EXT_INT_Initialize 0268                                 ___latbits 0001  
                                ?_INT_ISR 0070                             __pcstackBANK0 0032  
                               __pnvBANK0 002E                    _PIN_MANAGER_Initialize 019D  
        __end_of_TMR1_SetInterruptHandler 029C                                  ?___awdiv 0070  
                       ?_three_type_pulse 0070              ??_INTERRUPT_InterruptManager 007C  
                      ??_three_type_pulse 0072                                  _RC5_Code 002A  
                               clear_ram0 0290                                  _PIE0bits 0716  
                                _PIE4bits 071A                                 _save_data 01FC  
                                _PIR0bits 070C                                  _PIR4bits 0710  
                                _TMR1_ISR 0213                         ??_TMR1_Initialize 0034  
                              ?_save_data 0070                   ??_OSCILLATOR_Initialize 0032  
                        _get_pulse_length 0157                            _two_type_pulse 01E1  
                _TMR1_SetInterruptHandler 0296                     _TMR1_InterruptHandler 002E  
                                __ptext10 0213                                  __ptext11 0229  
                                __ptext12 02A2                                  __ptext13 0033  
                              _T1GCONbits 020F                                  __ptext14 0157  
                                __ptext15 01E1                                  __ptext16 0268  
                                __ptext17 024A                                  __ptext18 01FC  
                                __ptext19 00F8                    __end_of_two_type_pulse 01FC  
                                int$flags 007E        __end_of_INTERRUPT_InterruptManager 0025  
              _INTERRUPT_InterruptManager 0004                         ??_TMR1_WriteTimer 0072  
                              _INTCONbits 000B                      _INT_InterruptHandler 0030  
                      _EXT_INT_Initialize 025A                                  intlevel1 0000  
                 ?_PIN_MANAGER_Initialize 0070                       ?_EXT_INT_Initialize 0070  
                             ??_save_data 0070                           ?_two_type_pulse 0070  
                ?_INT_SetInterruptHandler 0032                      ??_EXT_INT_Initialize 0034  
          __end_of_PIN_MANAGER_Initialize 01C3                           _TMR1_Initialize 01C3  
